

Microchip MPLAB XC8 Assembler V3.00 build 20241204225717 
                                                                                               Sun Nov 02 12:41:52 2025

Microchip MPLAB XC8 C Compiler v3.00 (Pro license) build 20241204225717 Og9s 
     1                           	processor	16F628A
     2                           	pagewidth 120
     3                           	opt	plic
     4                           	psect	strings,global,class=STRING,space=0,delta=2,noexec
     5                           	psect	cinit,global,class=CODE,space=0,merge=1,delta=2
     6                           	psect	bssBANK0,global,class=BANK0,space=1,delta=1,noexec
     7                           	psect	clrtext,global,class=CODE,space=0,delta=2
     8                           	psect	cstackCOMMON,global,class=COMMON,space=1,delta=1,noexec
     9                           	psect	cstackBANK0,global,class=BANK0,space=1,delta=1,noexec
    10                           	psect	maintext,global,class=CODE,space=0,split=1,delta=2
    11                           	psect	text1,local,class=CODE,space=0,merge=1,delta=2
    12                           	psect	text2,local,class=CODE,space=0,merge=1,delta=2
    13                           	psect	text3,local,class=CODE,space=0,merge=1,delta=2
    14                           	psect	text4,local,class=CODE,space=0,merge=1,delta=2
    15                           	psect	text5,local,class=CODE,space=0,merge=1,delta=2
    16                           	psect	text6,local,class=CODE,space=0,merge=1,delta=2
    17                           	psect	text7,local,class=CODE,space=0,merge=1,delta=2
    18                           	psect	text8,local,class=CODE,space=0,merge=1,delta=2
    19                           	psect	text9,local,class=CODE,space=0,merge=1,delta=2
    20                           	psect	text10,local,class=CODE,space=0,merge=1,delta=2,group=1
    21                           	psect	text11,local,class=CODE,space=0,merge=1,delta=2
    22                           	psect	text12,local,class=CODE,space=0,merge=1,delta=2
    23                           	psect	text13,local,class=CODE,space=0,merge=1,delta=2
    24                           	psect	text14,local,class=CODE,space=0,merge=1,delta=2
    25                           	psect	text15,local,class=CODE,space=0,merge=1,delta=2
    26                           	psect	text16,local,class=CODE,space=0,merge=1,delta=2
    27                           	psect	text17,local,class=CODE,space=0,merge=1,delta=2
    28                           	psect	text18,local,class=CODE,space=0,merge=1,delta=2
    29                           	psect	text19,local,class=CODE,space=0,merge=1,delta=2
    30                           	psect	text20,local,class=CODE,space=0,merge=1,delta=2
    31                           	psect	text21,local,class=CODE,space=0,merge=1,delta=2
    32                           	psect	text22,local,class=CODE,space=0,merge=1,delta=2
    33                           	psect	text23,local,class=CODE,space=0,merge=1,delta=2
    34                           	psect	text24,local,class=CODE,space=0,merge=1,delta=2
    35                           	psect	text25,local,class=CODE,space=0,merge=1,delta=2
    36                           	psect	idloc,global,abs,ovrld,class=IDLOC,space=5,delta=2,noexec
    37                           	psect	config,global,abs,ovrld,class=CONFIG,space=4,delta=2,noexec
    38                           	psect	pa_nodes0,global,class=CODE,space=0,delta=2
    39                           	dabs	1,0x7E,2
    40     0000                     
    41                           ; Generated 12/10/2023 GMT
    42                           ; 
    43                           ; Copyright © 2023, Microchip Technology Inc. and its subsidiaries ("Microchip")
    44                           ; All rights reserved.
    45                           ; 
    46                           ; This software is developed by Microchip Technology Inc. and its subsidiaries ("Microch
      +                          ip").
    47                           ; 
    48                           ; Redistribution and use in source and binary forms, with or without modification, are
    49                           ; permitted provided that the following conditions are met:
    50                           ; 
    51                           ;     1. Redistributions of source code must retain the above copyright notice, this lis
      +                          t of
    52                           ;        conditions and the following disclaimer.
    53                           ; 
    54                           ;     2. Redistributions in binary form must reproduce the above copyright notice, this 
      +                          list
    55                           ;        of conditions and the following disclaimer in the documentation and/or other
    56                           ;        materials provided with the distribution. Publication is not required when
    57                           ;        this file is used in an embedded application.
    58                           ; 
    59                           ;     3. Microchip's name may not be used to endorse or promote products derived from th
      +                          is
    60                           ;        software without specific prior written permission.
    61                           ; 
    62                           ; THIS SOFTWARE IS PROVIDED BY MICROCHIP "AS IS" AND ANY EXPRESS OR IMPLIED WARRANTIES,
    63                           ; INCLUDING, BUT NOT LIMITED TO, THE IMPLIED WARRANTIES OF MERCHANTABILITY AND FITNESS F
      +                          OR
    64                           ; PURPOSE ARE DISCLAIMED.  IN NO EVENT SHALL MICROCHIP BE LIABLE FOR ANY DIRECT, INDIREC
      +                          T,
    65                           ; INCIDENTAL, SPECIAL, EXEMPLARY, OR CONSEQUENTIAL DAMAGES (INCLUDING BUT NOT LIMITED TO
    66                           ; PROCUREMENT OF SUBSTITUTE GOODS OR SERVICES; LOSS OF USE, DATA OR PROFITS; OR BUSINESS
    67                           ; INTERRUPTION) HOWSOEVER CAUSED AND ON ANY THEORY OF LIABILITY, WHETHER IN CONTRACT, ST
      +                          RICT
    68                           ; LIABILITY, OR TORT (INCLUDING NEGLIGENCE OR OTHERWISE) ARISING IN ANY WAY OUT OF THE U
      +                          SE OF
    69                           ; THIS SOFTWARE, EVEN IF ADVISED OF THE POSSIBILITY OF SUCH DAMAGE.
    70                           ; 
    71                           ; 
    72                           ; Code-generator required, PIC16F628A Definitions
    73                           ; 
    74                           ; SFR Addresses
    75     0004                     fsr             equ	4
    76     0004                     fsr0            equ	4
    77     0000                     indf            equ	0
    78     0000                     indf0           equ	0
    79     0002                     pc              equ	2
    80     0002                     pcl             equ	2
    81     000A                     pclath          equ	10
    82     0003                     status          equ	3
    83     0000                     INDF            equ	0	;# 
    84     0001                     TMR0            equ	1	;# 
    85     0002                     PCL             equ	2	;# 
    86     0003                     STATUS          equ	3	;# 
    87     0004                     FSR             equ	4	;# 
    88     0005                     PORTA           equ	5	;# 
    89     0006                     PORTB           equ	6	;# 
    90     000A                     PCLATH          equ	10	;# 
    91     000B                     INTCON          equ	11	;# 
    92     000C                     PIR1            equ	12	;# 
    93     000E                     TMR1            equ	14	;# 
    94     000E                     TMR1L           equ	14	;# 
    95     000F                     TMR1H           equ	15	;# 
    96     0010                     T1CON           equ	16	;# 
    97     0011                     TMR2            equ	17	;# 
    98     0012                     T2CON           equ	18	;# 
    99     0015                     CCPR1           equ	21	;# 
   100     0015                     CCPR1L          equ	21	;# 
   101     0016                     CCPR1H          equ	22	;# 
   102     0017                     CCP1CON         equ	23	;# 
   103     0018                     RCSTA           equ	24	;# 
   104     0019                     TXREG           equ	25	;# 
   105     001A                     RCREG           equ	26	;# 
   106     001F                     CMCON           equ	31	;# 
   107     0081                     OPTION_REG      equ	129	;# 
   108     0085                     TRISA           equ	133	;# 
   109     0086                     TRISB           equ	134	;# 
   110     008C                     PIE1            equ	140	;# 
   111     008E                     PCON            equ	142	;# 
   112     0092                     PR2             equ	146	;# 
   113     0098                     TXSTA           equ	152	;# 
   114     0099                     SPBRG           equ	153	;# 
   115     009A                     EEDATA          equ	154	;# 
   116     009B                     EEADR           equ	155	;# 
   117     009C                     EECON1          equ	156	;# 
   118     009D                     EECON2          equ	157	;# 
   119     009F                     VRCON           equ	159	;# 
   120     0000                     INDF            equ	0	;# 
   121     0001                     TMR0            equ	1	;# 
   122     0002                     PCL             equ	2	;# 
   123     0003                     STATUS          equ	3	;# 
   124     0004                     FSR             equ	4	;# 
   125     0005                     PORTA           equ	5	;# 
   126     0006                     PORTB           equ	6	;# 
   127     000A                     PCLATH          equ	10	;# 
   128     000B                     INTCON          equ	11	;# 
   129     000C                     PIR1            equ	12	;# 
   130     000E                     TMR1            equ	14	;# 
   131     000E                     TMR1L           equ	14	;# 
   132     000F                     TMR1H           equ	15	;# 
   133     0010                     T1CON           equ	16	;# 
   134     0011                     TMR2            equ	17	;# 
   135     0012                     T2CON           equ	18	;# 
   136     0015                     CCPR1           equ	21	;# 
   137     0015                     CCPR1L          equ	21	;# 
   138     0016                     CCPR1H          equ	22	;# 
   139     0017                     CCP1CON         equ	23	;# 
   140     0018                     RCSTA           equ	24	;# 
   141     0019                     TXREG           equ	25	;# 
   142     001A                     RCREG           equ	26	;# 
   143     001F                     CMCON           equ	31	;# 
   144     0081                     OPTION_REG      equ	129	;# 
   145     0085                     TRISA           equ	133	;# 
   146     0086                     TRISB           equ	134	;# 
   147     008C                     PIE1            equ	140	;# 
   148     008E                     PCON            equ	142	;# 
   149     0092                     PR2             equ	146	;# 
   150     0098                     TXSTA           equ	152	;# 
   151     0099                     SPBRG           equ	153	;# 
   152     009A                     EEDATA          equ	154	;# 
   153     009B                     EEADR           equ	155	;# 
   154     009C                     EECON1          equ	156	;# 
   155     009D                     EECON2          equ	157	;# 
   156     009F                     VRCON           equ	159	;# 
   157     0000                     INDF            equ	0	;# 
   158     0001                     TMR0            equ	1	;# 
   159     0002                     PCL             equ	2	;# 
   160     0003                     STATUS          equ	3	;# 
   161     0004                     FSR             equ	4	;# 
   162     0005                     PORTA           equ	5	;# 
   163     0006                     PORTB           equ	6	;# 
   164     000A                     PCLATH          equ	10	;# 
   165     000B                     INTCON          equ	11	;# 
   166     000C                     PIR1            equ	12	;# 
   167     000E                     TMR1            equ	14	;# 
   168     000E                     TMR1L           equ	14	;# 
   169     000F                     TMR1H           equ	15	;# 
   170     0010                     T1CON           equ	16	;# 
   171     0011                     TMR2            equ	17	;# 
   172     0012                     T2CON           equ	18	;# 
   173     0015                     CCPR1           equ	21	;# 
   174     0015                     CCPR1L          equ	21	;# 
   175     0016                     CCPR1H          equ	22	;# 
   176     0017                     CCP1CON         equ	23	;# 
   177     0018                     RCSTA           equ	24	;# 
   178     0019                     TXREG           equ	25	;# 
   179     001A                     RCREG           equ	26	;# 
   180     001F                     CMCON           equ	31	;# 
   181     0081                     OPTION_REG      equ	129	;# 
   182     0085                     TRISA           equ	133	;# 
   183     0086                     TRISB           equ	134	;# 
   184     008C                     PIE1            equ	140	;# 
   185     008E                     PCON            equ	142	;# 
   186     0092                     PR2             equ	146	;# 
   187     0098                     TXSTA           equ	152	;# 
   188     0099                     SPBRG           equ	153	;# 
   189     009A                     EEDATA          equ	154	;# 
   190     009B                     EEADR           equ	155	;# 
   191     009C                     EECON1          equ	156	;# 
   192     009D                     EECON2          equ	157	;# 
   193     009F                     VRCON           equ	159	;# 
   194     0000                     INDF            equ	0	;# 
   195     0001                     TMR0            equ	1	;# 
   196     0002                     PCL             equ	2	;# 
   197     0003                     STATUS          equ	3	;# 
   198     0004                     FSR             equ	4	;# 
   199     0005                     PORTA           equ	5	;# 
   200     0006                     PORTB           equ	6	;# 
   201     000A                     PCLATH          equ	10	;# 
   202     000B                     INTCON          equ	11	;# 
   203     000C                     PIR1            equ	12	;# 
   204     000E                     TMR1            equ	14	;# 
   205     000E                     TMR1L           equ	14	;# 
   206     000F                     TMR1H           equ	15	;# 
   207     0010                     T1CON           equ	16	;# 
   208     0011                     TMR2            equ	17	;# 
   209     0012                     T2CON           equ	18	;# 
   210     0015                     CCPR1           equ	21	;# 
   211     0015                     CCPR1L          equ	21	;# 
   212     0016                     CCPR1H          equ	22	;# 
   213     0017                     CCP1CON         equ	23	;# 
   214     0018                     RCSTA           equ	24	;# 
   215     0019                     TXREG           equ	25	;# 
   216     001A                     RCREG           equ	26	;# 
   217     001F                     CMCON           equ	31	;# 
   218     0081                     OPTION_REG      equ	129	;# 
   219     0085                     TRISA           equ	133	;# 
   220     0086                     TRISB           equ	134	;# 
   221     008C                     PIE1            equ	140	;# 
   222     008E                     PCON            equ	142	;# 
   223     0092                     PR2             equ	146	;# 
   224     0098                     TXSTA           equ	152	;# 
   225     0099                     SPBRG           equ	153	;# 
   226     009A                     EEDATA          equ	154	;# 
   227     009B                     EEADR           equ	155	;# 
   228     009C                     EECON1          equ	156	;# 
   229     009D                     EECON2          equ	157	;# 
   230     009F                     VRCON           equ	159	;# 
   231     0000                     INDF            equ	0	;# 
   232     0001                     TMR0            equ	1	;# 
   233     0002                     PCL             equ	2	;# 
   234     0003                     STATUS          equ	3	;# 
   235     0004                     FSR             equ	4	;# 
   236     0005                     PORTA           equ	5	;# 
   237     0006                     PORTB           equ	6	;# 
   238     000A                     PCLATH          equ	10	;# 
   239     000B                     INTCON          equ	11	;# 
   240     000C                     PIR1            equ	12	;# 
   241     000E                     TMR1            equ	14	;# 
   242     000E                     TMR1L           equ	14	;# 
   243     000F                     TMR1H           equ	15	;# 
   244     0010                     T1CON           equ	16	;# 
   245     0011                     TMR2            equ	17	;# 
   246     0012                     T2CON           equ	18	;# 
   247     0015                     CCPR1           equ	21	;# 
   248     0015                     CCPR1L          equ	21	;# 
   249     0016                     CCPR1H          equ	22	;# 
   250     0017                     CCP1CON         equ	23	;# 
   251     0018                     RCSTA           equ	24	;# 
   252     0019                     TXREG           equ	25	;# 
   253     001A                     RCREG           equ	26	;# 
   254     001F                     CMCON           equ	31	;# 
   255     0081                     OPTION_REG      equ	129	;# 
   256     0085                     TRISA           equ	133	;# 
   257     0086                     TRISB           equ	134	;# 
   258     008C                     PIE1            equ	140	;# 
   259     008E                     PCON            equ	142	;# 
   260     0092                     PR2             equ	146	;# 
   261     0098                     TXSTA           equ	152	;# 
   262     0099                     SPBRG           equ	153	;# 
   263     009A                     EEDATA          equ	154	;# 
   264     009B                     EEADR           equ	155	;# 
   265     009C                     EECON1          equ	156	;# 
   266     009D                     EECON2          equ	157	;# 
   267     009F                     VRCON           equ	159	;# 
   268     0000                     INDF            equ	0	;# 
   269     0001                     TMR0            equ	1	;# 
   270     0002                     PCL             equ	2	;# 
   271     0003                     STATUS          equ	3	;# 
   272     0004                     FSR             equ	4	;# 
   273     0005                     PORTA           equ	5	;# 
   274     0006                     PORTB           equ	6	;# 
   275     000A                     PCLATH          equ	10	;# 
   276     000B                     INTCON          equ	11	;# 
   277     000C                     PIR1            equ	12	;# 
   278     000E                     TMR1            equ	14	;# 
   279     000E                     TMR1L           equ	14	;# 
   280     000F                     TMR1H           equ	15	;# 
   281     0010                     T1CON           equ	16	;# 
   282     0011                     TMR2            equ	17	;# 
   283     0012                     T2CON           equ	18	;# 
   284     0015                     CCPR1           equ	21	;# 
   285     0015                     CCPR1L          equ	21	;# 
   286     0016                     CCPR1H          equ	22	;# 
   287     0017                     CCP1CON         equ	23	;# 
   288     0018                     RCSTA           equ	24	;# 
   289     0019                     TXREG           equ	25	;# 
   290     001A                     RCREG           equ	26	;# 
   291     001F                     CMCON           equ	31	;# 
   292     0081                     OPTION_REG      equ	129	;# 
   293     0085                     TRISA           equ	133	;# 
   294     0086                     TRISB           equ	134	;# 
   295     008C                     PIE1            equ	140	;# 
   296     008E                     PCON            equ	142	;# 
   297     0092                     PR2             equ	146	;# 
   298     0098                     TXSTA           equ	152	;# 
   299     0099                     SPBRG           equ	153	;# 
   300     009A                     EEDATA          equ	154	;# 
   301     009B                     EEADR           equ	155	;# 
   302     009C                     EECON1          equ	156	;# 
   303     009D                     EECON2          equ	157	;# 
   304     009F                     VRCON           equ	159	;# 
   305     0000                     INDF            equ	0	;# 
   306     0001                     TMR0            equ	1	;# 
   307     0002                     PCL             equ	2	;# 
   308     0003                     STATUS          equ	3	;# 
   309     0004                     FSR             equ	4	;# 
   310     0005                     PORTA           equ	5	;# 
   311     0006                     PORTB           equ	6	;# 
   312     000A                     PCLATH          equ	10	;# 
   313     000B                     INTCON          equ	11	;# 
   314     000C                     PIR1            equ	12	;# 
   315     000E                     TMR1            equ	14	;# 
   316     000E                     TMR1L           equ	14	;# 
   317     000F                     TMR1H           equ	15	;# 
   318     0010                     T1CON           equ	16	;# 
   319     0011                     TMR2            equ	17	;# 
   320     0012                     T2CON           equ	18	;# 
   321     0015                     CCPR1           equ	21	;# 
   322     0015                     CCPR1L          equ	21	;# 
   323     0016                     CCPR1H          equ	22	;# 
   324     0017                     CCP1CON         equ	23	;# 
   325     0018                     RCSTA           equ	24	;# 
   326     0019                     TXREG           equ	25	;# 
   327     001A                     RCREG           equ	26	;# 
   328     001F                     CMCON           equ	31	;# 
   329     0081                     OPTION_REG      equ	129	;# 
   330     0085                     TRISA           equ	133	;# 
   331     0086                     TRISB           equ	134	;# 
   332     008C                     PIE1            equ	140	;# 
   333     008E                     PCON            equ	142	;# 
   334     0092                     PR2             equ	146	;# 
   335     0098                     TXSTA           equ	152	;# 
   336     0099                     SPBRG           equ	153	;# 
   337     009A                     EEDATA          equ	154	;# 
   338     009B                     EEADR           equ	155	;# 
   339     009C                     EECON1          equ	156	;# 
   340     009D                     EECON2          equ	157	;# 
   341     009F                     VRCON           equ	159	;# 
   342                           
   343                           	psect	strings
   344     0001                     __pstrings:
   345     0001                     stringtab:
   346     0001                     __stringtab:
   347                           
   348                           ;	String table - string pointers are 1 byte each
   349     0001  1BFF               	btfsc	btemp+1,7
   350     0002  280B               	ljmp	stringcode
   351     0003  1383               	bcf	3,7
   352     0004  187F               	btfsc	btemp+1,0
   353     0005  1783               	bsf	3,7
   354     0006  0800               	movf	0,w
   355     0007  0A84               	incf	4,f
   356     0008  1903               	skipnz
   357     0009  0AFF               	incf	btemp+1,f
   358     000A  0008               	return
   359     000B                     stringcode:
   360     000B                     stringdir:
   361     000B  3000               	movlw	high stringdir
   362     000C  008A               	movwf	10
   363     000D  0804               	movf	4,w
   364     000E  0A84               	incf	4,f
   365     000F  0782               	addwf	2,f
   366     0010                     __stringbase:
   367     0010  3400               	retlw	0
   368     0011                     __end_of__stringtab:
   369     0011                     _fract:
   370     0011  3400               	retlw	0
   371     0012  3401               	retlw	1
   372     0013  3401               	retlw	1
   373     0014  3402               	retlw	2
   374     0015  3402               	retlw	2
   375     0016  3403               	retlw	3
   376     0017  3404               	retlw	4
   377     0018  3404               	retlw	4
   378     0019  3405               	retlw	5
   379     001A  3406               	retlw	6
   380     001B  3406               	retlw	6
   381     001C  3407               	retlw	7
   382     001D  3407               	retlw	7
   383     001E  3408               	retlw	8
   384     001F  3409               	retlw	9
   385     0020  3409               	retlw	9
   386     0021                     __end_of_fract:
   387     0021                     _nrf_rx_address:
   388     0021  3420               	retlw	32
   389     0022  3401               	retlw	1
   390     0023  3424               	retlw	36
   391     0024  3405               	retlw	5
   392     0025  3405               	retlw	5
   393     0026                     __end_of_nrf_rx_address:
   394     0026                     _nrf_tx_address:
   395     0026  3420               	retlw	32
   396     0027  3401               	retlw	1
   397     0028  3424               	retlw	36
   398     0029  3405               	retlw	5
   399     002A  3405               	retlw	5
   400     002B                     __end_of_nrf_tx_address:
   401     0018                     _RCSTAbits      set	24
   402     0006                     _PORTBbits      set	6
   403     001F                     _CMCON          set	31
   404     0005                     _PORTA          set	5
   405     0006                     _PORTB          set	6
   406     0005                     _PORTAbits      set	5
   407     0099                     _SPBRG          set	153
   408     0098                     _TXSTAbits      set	152
   409     0085                     _TRISAbits      set	133
   410     0086                     _TRISBbits      set	134
   411     0081                     _OPTION_REGbits set	129
   412     0085                     _TRISA          set	133
   413     0086                     _TRISB          set	134
   414                           
   415                           	psect	cinit
   416     07F9                     start_initialization:	
   417                           ; #config settings
   418                           
   419     07F9                     __initialization:
   420                           
   421                           ; Clear objects allocated to BANK0
   422     07F9  1383               	bcf	3,7	;select IRP bank0
   423     07FA  3020               	movlw	low __pbssBANK0
   424     07FB  0084               	movwf	4
   425     07FC  3036               	movlw	low (__pbssBANK0+22)
   426     07FD  2557               	fcall	clear_ram0
   427     07FE                     end_of_initialization:	
   428                           ;End of C runtime variable initialization code
   429                           
   430     07FE                     __end_of__initialization:
   431     07FE  0183               	clrf	3
   432     07FF  2F65               	ljmp	l1595	;jump to C main() function
   433                           
   434                           	psect	bssBANK0
   435     0020                     __pbssBANK0:
   436     0020                     _scratch:
   437     0020                     	ds	9
   438     0029                     _error_send:
   439     0029                     	ds	2
   440     002B                     _pay_len:
   441     002B                     	ds	1
   442     002C                     _count:
   443     002C                     	ds	1
   444     002D                     _temp:
   445     002D                     	ds	1
   446     002E                     _data_array:
   447     002E                     	ds	5
   448     0033                     _temperature:
   449     0033                     	ds	2
   450     0035                     _minus:
   451     0035                     	ds	1
   452                           
   453                           	psect	clrtext
   454     0557                     clear_ram0:	
   455                           ;	Called with FSR containing the base address, and
   456                           ;	W with the last address+1
   457                           
   458     0557  0064               	clrwdt	;clear the watchdog before getting into this loop
   459     0558                     clrloop0:
   460     0558  0180               	clrf	0	;clear RAM location pointed to by FSR
   461     0559  0A84               	incf	4,f	;increment pointer
   462     055A  0604               	xorwf	4,w	;XOR with final address
   463     055B  1903               	btfsc	3,2	;have we reached the end yet?
   464     055C  3400               	retlw	0	;all done for this memory range, return
   465     055D  0604               	xorwf	4,w	;XOR again to restore value
   466     055E  2D58               	goto	clrloop0	;do the next byte
   467                           
   468                           	psect	cstackCOMMON
   469     0070                     __pcstackCOMMON:
   470     0070                     ?_init_Cpu:
   471     0070                     ?_spi_init:	
   472                           ; 1 bytes @ 0x0
   473                           
   474     0070                     ?_nrf24_powerDown:	
   475                           ; 1 bytes @ 0x0
   476                           
   477     0070                     ?_init_ds18b20:	
   478                           ; 1 bytes @ 0x0
   479                           
   480     0070                     ?_init_uart:	
   481                           ; 1 bytes @ 0x0
   482                           
   483     0070                     ?_nrf24_isSending:	
   484                           ; 1 bytes @ 0x0
   485                           
   486     0070                     ?_nrf24_messageStatus:	
   487                           ; 1 bytes @ 0x0
   488                           
   489     0070                     ?_nrf24_powerUpRx:	
   490                           ; 1 bytes @ 0x0
   491                           
   492     0070                     ?_spi_rw:	
   493                           ; 1 bytes @ 0x0
   494                           
   495     0070                     ?_nrf24_getStatus:	
   496                           ; 1 bytes @ 0x0
   497                           
   498     0070                     ?_ow_reset:	
   499                           ; 1 bytes @ 0x0
   500                           
   501     0070                     ?_write_byte:	
   502                           ; 1 bytes @ 0x0
   503                           
   504     0070                     ?_read_byte:	
   505                           ; 1 bytes @ 0x0
   506                           
   507     0070                     ?_main:	
   508                           ; 1 bytes @ 0x0
   509                           
   510     0070                     ?_nrf24_powerUpTx:	
   511                           ; 1 bytes @ 0x0
   512                           
   513     0070                     ?_read_bit:	
   514                           ; 1 bytes @ 0x0
   515                           
   516     0070                     ?_write_bit:	
   517                           ; 1 bytes @ 0x0
   518                           
   519     0070                     ?___wmul:	
   520                           ; 1 bytes @ 0x0
   521                           
   522     0070                     spi_rw@value:	
   523                           ; 2 bytes @ 0x0
   524                           
   525     0070                     ___wmul@multiplier:	
   526                           ; 1 bytes @ 0x0
   527                           
   528     0070                     ??_spi_init:	
   529                           ; 2 bytes @ 0x0
   530                           
   531     0070                     ??_init_uart:	
   532                           ; 1 bytes @ 0x0
   533                           
   534     0070                     ??_spi_rw:	
   535                           ; 1 bytes @ 0x0
   536                           
   537     0070                     ??_ow_reset:	
   538                           ; 1 bytes @ 0x0
   539                           
   540     0070                     ??_read_bit:	
   541                           ; 1 bytes @ 0x0
   542                           
   543     0070                     ??_write_bit:	
   544                           ; 1 bytes @ 0x0
   545                           
   546                           
   547                           ; 1 bytes @ 0x0
   548     0070                     	ds	1
   549     0071                     spi_rw@i:
   550     0071                     ow_reset@presence:	
   551                           ; 1 bytes @ 0x1
   552                           
   553     0071                     write_bit@bitval:	
   554                           ; 1 bytes @ 0x1
   555                           
   556     0071                     ??_read_byte:	
   557                           ; 1 bytes @ 0x1
   558                           
   559                           
   560                           ; 1 bytes @ 0x1
   561     0071                     	ds	1
   562     0072                     ?_nrf24_write_reg:
   563     0072                     ?_nrf24_write_buf:	
   564                           ; 1 bytes @ 0x2
   565                           
   566     0072                     nrf24_write_reg@value:	
   567                           ; 1 bytes @ 0x2
   568                           
   569     0072                     nrf24_getStatus@r_status:	
   570                           ; 1 bytes @ 0x2
   571                           
   572     0072                     read_byte@val:	
   573                           ; 1 bytes @ 0x2
   574                           
   575     0072                     nrf24_write_buf@pBuf:	
   576                           ; 1 bytes @ 0x2
   577                           
   578     0072                     ___wmul@multiplicand:	
   579                           ; 2 bytes @ 0x2
   580                           
   581     0072                     ??_nrf24_getStatus:	
   582                           ; 2 bytes @ 0x2
   583                           
   584     0072                     ??_write_byte:	
   585                           ; 1 bytes @ 0x2
   586                           
   587                           
   588                           ; 1 bytes @ 0x2
   589     0072                     	ds	1
   590     0073                     nrf24_write_reg@reg:
   591     0073                     nrf24_isSending@status:	
   592                           ; 1 bytes @ 0x3
   593                           
   594     0073                     nrf24_messageStatus@r_status:	
   595                           ; 1 bytes @ 0x3
   596                           
   597     0073                     read_byte@i:	
   598                           ; 1 bytes @ 0x3
   599                           
   600     0073                     write_byte@val:	
   601                           ; 1 bytes @ 0x3
   602                           
   603     0073                     ??_nrf24_isSending:	
   604                           ; 1 bytes @ 0x3
   605                           
   606     0073                     ??_nrf24_messageStatus:	
   607                           ; 1 bytes @ 0x3
   608                           
   609     0073                     ??_nrf24_write_reg:	
   610                           ; 1 bytes @ 0x3
   611                           
   612                           
   613                           ; 1 bytes @ 0x3
   614     0073                     	ds	1
   615     0074                     nrf24_write_buf@length:
   616     0074                     write_byte@temp:	
   617                           ; 1 bytes @ 0x4
   618                           
   619     0074                     ___wmul@product:	
   620                           ; 1 bytes @ 0x4
   621                           
   622     0074                     ??_nrf24_powerDown:	
   623                           ; 2 bytes @ 0x4
   624                           
   625     0074                     ??_nrf24_powerUpRx:	
   626                           ; 1 bytes @ 0x4
   627                           
   628     0074                     ??_nrf24_powerUpTx:	
   629                           ; 1 bytes @ 0x4
   630                           
   631     0074                     ??___wmul:	
   632                           ; 1 bytes @ 0x4
   633                           
   634                           
   635                           ; 1 bytes @ 0x4
   636     0074                     	ds	1
   637     0075                     nrf24_write_buf@reg:
   638     0075                     write_byte@i:	
   639                           ; 1 bytes @ 0x5
   640                           
   641     0075                     ??_nrf24_write_buf:	
   642                           ; 1 bytes @ 0x5
   643                           
   644                           
   645                           ; 1 bytes @ 0x5
   646     0075                     	ds	1
   647     0076                     ?_readTemp_Single:
   648     0076                     nrf24_write_buf@i:	
   649                           ; 1 bytes @ 0x6
   650                           
   651     0076                     readTemp_Single@buf:	
   652                           ; 1 bytes @ 0x6
   653                           
   654     0076                     ??_init_ds18b20:	
   655                           ; 1 bytes @ 0x6
   656                           
   657                           
   658                           ; 1 bytes @ 0x6
   659     0076                     	ds	1
   660     0077                     ?_nrf24_send:
   661     0077                     ?_nrf24_tx_address:	
   662                           ; 1 bytes @ 0x7
   663                           
   664     0077                     ?_nrf24_rx_address:	
   665                           ; 1 bytes @ 0x7
   666                           
   667     0077                     nrf24_tx_address@adr:	
   668                           ; 1 bytes @ 0x7
   669                           
   670     0077                     nrf24_rx_address@adr:	
   671                           ; 1 bytes @ 0x7
   672                           
   673     0077                     nrf24_send@value:	
   674                           ; 1 bytes @ 0x7
   675                           
   676     0077                     readTemp_Single@minus:	
   677                           ; 1 bytes @ 0x7
   678                           
   679                           
   680                           ; 1 bytes @ 0x7
   681     0077                     	ds	1
   682     0078                     ?_nrf24_init:
   683     0078                     ?_reliable_send:	
   684                           ; 1 bytes @ 0x8
   685                           
   686     0078                     reliable_send@data:	
   687                           ; 1 bytes @ 0x8
   688                           
   689     0078                     nrf24_init@pay_length:	
   690                           ; 1 bytes @ 0x8
   691                           
   692     0078                     ??_readTemp_Single:	
   693                           ; 1 bytes @ 0x8
   694                           
   695     0078                     ??_nrf24_send:	
   696                           ; 1 bytes @ 0x8
   697                           
   698     0078                     ??_nrf24_tx_address:	
   699                           ; 1 bytes @ 0x8
   700                           
   701     0078                     ??_nrf24_rx_address:	
   702                           ; 1 bytes @ 0x8
   703                           
   704                           
   705                           ; 1 bytes @ 0x8
   706     0078                     	ds	1
   707     0079                     nrf24_init@channel:
   708     0079                     ??_nrf24_init:	
   709                           ; 1 bytes @ 0x9
   710                           
   711     0079                     ??_reliable_send:	
   712                           ; 1 bytes @ 0x9
   713                           
   714                           
   715                           ; 1 bytes @ 0x9
   716     0079                     	ds	1
   717     007A                     ??_init_Cpu:
   718                           
   719                           ; 1 bytes @ 0xA
   720     007A                     	ds	1
   721     007B                     reliable_send@i:
   722                           
   723                           ; 1 bytes @ 0xB
   724     007B                     	ds	1
   725     007C                     ??_main:
   726                           
   727                           ; 1 bytes @ 0xC
   728     007C                     	ds	2
   729                           
   730                           	psect	cstackBANK0
   731     0036                     __pcstackBANK0:
   732     0036                     readTemp_Single@tmp:
   733                           
   734                           ; 1 bytes @ 0x0
   735     0036                     	ds	1
   736     0037                     readTemp_Single@i:
   737                           
   738                           ; 1 bytes @ 0x1
   739     0037                     	ds	1
   740     0038                     readTemp_Single@temp:
   741                           
   742                           ; 2 bytes @ 0x2
   743     0038                     	ds	2
   744                           
   745                           	psect	maintext
   746     0765                     __pmaintext:	
   747 ;;
   748 ;;Main: autosize = 0, tempsize = 2, incstack = 0, save=0
   749 ;;
   750 ;; *************** function _main *****************
   751 ;; Defined at:
   752 ;;		line 29 in file "main.c"
   753 ;; Parameters:    Size  Location     Type
   754 ;;		None
   755 ;; Auto vars:     Size  Location     Type
   756 ;;  temp_flag       1    0        unsigned char 
   757 ;; Return value:  Size  Location     Type
   758 ;;                  1    wreg      void 
   759 ;; Registers used:
   760 ;;		wreg, fsr0l, fsr0h, status,2, status,0, btemp+1, pclath, cstack
   761 ;; Tracked objects:
   762 ;;		On entry : B00/0
   763 ;;		On exit  : 300/0
   764 ;;		Unchanged: 0/0
   765 ;; Data sizes:     COMMON   BANK0   BANK1   BANK2
   766 ;;      Params:         0       0       0       0
   767 ;;      Locals:         0       0       0       0
   768 ;;      Temps:          2       0       0       0
   769 ;;      Totals:         2       0       0       0
   770 ;;Total ram usage:        2 bytes
   771 ;; Hardware stack levels required when called: 5
   772 ;; This function calls:
   773 ;;		_init_Cpu
   774 ;;		_nrf24_init
   775 ;;		_nrf24_powerDown
   776 ;;		_readTemp_Single
   777 ;;		_reliable_send
   778 ;;		_spi_init
   779 ;; This function is called by:
   780 ;;		Startup code after reset
   781 ;; This function uses a non-reentrant model
   782 ;;
   783                           
   784     0765                     _main:	
   785                           ;psect for function _main
   786                           
   787     0765                     l1595:	
   788                           ;incstack = 0
   789                           ; Regs used in _main: [wreg-fsr0h+status,2+status,0+btemp+1+pclath+cstack]
   790                           
   791                           
   792                           ;main.c: 30:     uint8_t temp_flag;;main.c: 31:     init_Cpu();
   793     0765  25B7               	fcall	_init_Cpu
   794                           
   795                           ;main.c: 32:     data_array[0] = 0xFF;
   796     0766  30FF               	movlw	255
   797     0767  1283               	bcf	3,5	;RP0=0, select bank0
   798     0768  00AE               	movwf	_data_array
   799                           
   800                           ;main.c: 33:     data_array[1] = 0xFF;
   801     0769  00AF               	movwf	_data_array+1
   802                           
   803                           ;main.c: 34:     data_array[2] = 0xFF;
   804     076A  00B0               	movwf	_data_array+2
   805                           
   806                           ;main.c: 35:     data_array[3] = 0x00;
   807     076B  01B1               	clrf	_data_array+3
   808                           
   809                           ;main.c: 36:     data_array[4] = 0x00;
   810     076C  01B2               	clrf	_data_array+4
   811     076D                     l57:	
   812                           ;main.c: 37:     while (1) {
   813                           
   814     076D  0064               	clrwdt	;# 
   815                           
   816                           ;main.c: 40:         data_array[3] = error_send & 0xFF;
   817     076E  1283               	bcf	3,5	;RP0=0, select bank0
   818     076F  1303               	bcf	3,6	;RP1=0, select bank0
   819     0770  0829               	movf	_error_send,w
   820     0771  00B1               	movwf	_data_array+3
   821                           
   822                           ;main.c: 41:         data_array[4] = (uint8_t) (error_send >> 8);
   823     0772  082A               	movf	_error_send+1,w
   824     0773  00B2               	movwf	_data_array+4
   825                           
   826                           ;main.c: 42:         if (readTemp_Single(&temperature, &minus)) {
   827     0774  3033               	movlw	(low (_temperature| 0))& (0+255)
   828     0775  00F6               	movwf	readTemp_Single@buf
   829     0776  3035               	movlw	(low (_minus| 0))& (0+255)
   830     0777  00F7               	movwf	readTemp_Single@minus
   831     0778  26FB               	fcall	_readTemp_Single
   832     0779  3A00               	xorlw	0
   833     077A  1903               	skipnz
   834     077B  2F84               	goto	l58
   835                           
   836                           ;main.c: 43:             data_array[0] = minus;
   837     077C  1283               	bcf	3,5	;RP0=0, select bank0
   838     077D  1303               	bcf	3,6	;RP1=0, select bank0
   839     077E  0835               	movf	_minus,w
   840     077F  00AE               	movwf	_data_array
   841                           
   842                           ;main.c: 44:             data_array[1] = temperature & 0xFF;
   843     0780  0833               	movf	_temperature,w
   844     0781  00AF               	movwf	_data_array+1
   845                           
   846                           ;main.c: 45:             data_array[2] = (uint8_t) (temperature >> 8);
   847     0782  0834               	movf	_temperature+1,w
   848     0783  2F89               	goto	L1
   849     0784                     l58:	
   850                           ;main.c: 46:         } else {
   851                           
   852                           
   853                           ;main.c: 48:             data_array[0] = 0xFF;
   854     0784  30FF               	movlw	255
   855     0785  1283               	bcf	3,5	;RP0=0, select bank0
   856     0786  1303               	bcf	3,6	;RP1=0, select bank0
   857     0787  00AE               	movwf	_data_array
   858                           
   859                           ;main.c: 49:             data_array[1] = 0xFF;
   860     0788  00AF               	movwf	_data_array+1
   861     0789                     L1:
   862                           
   863                           ;main.c: 50:             data_array[2] = 0xFF;
   864     0789  00B0               	movwf	_data_array+2
   865                           
   866                           ;main.c: 51:         }
   867     078A  0064               	clrwdt	;# 
   868                           
   869                           ;main.c: 55:         spi_init();
   870     078B  255F               	fcall	_spi_init
   871                           
   872                           ;main.c: 56:         nrf24_init(123, 5);
   873     078C  3005               	movlw	5
   874     078D  00F8               	movwf	nrf24_init@pay_length
   875     078E  307B               	movlw	123
   876     078F  26BF               	fcall	_nrf24_init
   877                           
   878                           ;main.c: 57:         _delay((unsigned long)((5)*(4000000/4000.0)));
   879     0790  3007               	movlw	7
   880     0791  00FD               	movwf	??_main+1
   881     0792  307D               	movlw	125
   882     0793  00FC               	movwf	??_main
   883     0794                     u537:
   884     0794  0BFC               	decfsz	??_main,f
   885     0795  2F94               	goto	u537
   886     0796  0BFD               	decfsz	??_main+1,f
   887     0797  2F94               	goto	u537
   888                           
   889                           ;main.c: 66:         if (reliable_send(data_array)) {
   890     0798  302E               	movlw	(low (_data_array| 0))& (0+255)
   891     0799  00F8               	movwf	reliable_send@data
   892     079A  26A0               	fcall	_reliable_send
   893     079B  3A00               	xorlw	0
   894                           
   895                           ;main.c: 67:             PORTAbits.RA0 = 0;
   896     079C  1283               	bcf	3,5	;RP0=0, select bank0
   897     079D  1303               	bcf	3,6	;RP1=0, select bank0
   898     079E  1903               	skipnz
   899     079F  2FAE               	goto	L2
   900     07A0  1005               	bcf	5,0	;volatile
   901                           
   902                           ;main.c: 68:             _delay((unsigned long)((8)*(4000000/4000.0)));
   903     07A1  300B               	movlw	11
   904     07A2  00FD               	movwf	??_main+1
   905     07A3  3062               	movlw	98
   906     07A4  00FC               	movwf	??_main
   907     07A5                     u547:
   908     07A5  0BFC               	decfsz	??_main,f
   909     07A6  2FA5               	goto	u547
   910     07A7  0BFD               	decfsz	??_main+1,f
   911     07A8  2FA5               	goto	u547
   912     07A9  0000               	nop
   913                           
   914                           ;main.c: 69:             PORTAbits.RA0 = 1;
   915     07AA  1283               	bcf	3,5	;RP0=0, select bank0
   916     07AB  1303               	bcf	3,6	;RP1=0, select bank0
   917     07AC  1405               	bsf	5,0	;volatile
   918                           
   919                           ;main.c: 71:         } else if (temp == 1) {
   920     07AD  2FE3               	goto	l1643
   921     07AE                     L2:
   922     07AE  032D               	decf	_temp,w
   923     07AF  1D03               	btfss	3,2
   924     07B0  2FE3               	goto	l1643
   925                           
   926                           ;main.c: 72:             PORTAbits.RA0 = 0;
   927     07B1  1005               	bcf	5,0	;volatile
   928                           
   929                           ;main.c: 73:             _delay((unsigned long)((2)*(4000000/4000.0)));
   930     07B2  3003               	movlw	3
   931     07B3  00FD               	movwf	??_main+1
   932     07B4  3097               	movlw	151
   933     07B5  00FC               	movwf	??_main
   934     07B6                     u557:
   935     07B6  0BFC               	decfsz	??_main,f
   936     07B7  2FB6               	goto	u557
   937     07B8  0BFD               	decfsz	??_main+1,f
   938     07B9  2FB6               	goto	u557
   939     07BA  2FBB               	nop2
   940                           
   941                           ;main.c: 74:             PORTAbits.RA0 = 1;
   942     07BB  1283               	bcf	3,5	;RP0=0, select bank0
   943     07BC  1303               	bcf	3,6	;RP1=0, select bank0
   944     07BD  1405               	bsf	5,0	;volatile
   945                           
   946                           ;main.c: 75:             _delay((unsigned long)((150)*(4000000/4000.0)));
   947     07BE  30C3               	movlw	195
   948     07BF  00FD               	movwf	??_main+1
   949     07C0  30CD               	movlw	205
   950     07C1  00FC               	movwf	??_main
   951     07C2                     u567:
   952     07C2  0BFC               	decfsz	??_main,f
   953     07C3  2FC2               	goto	u567
   954     07C4  0BFD               	decfsz	??_main+1,f
   955     07C5  2FC2               	goto	u567
   956                           
   957                           ;main.c: 76:             PORTAbits.RA0 = 0;
   958     07C6  1283               	bcf	3,5	;RP0=0, select bank0
   959     07C7  1303               	bcf	3,6	;RP1=0, select bank0
   960     07C8  1005               	bcf	5,0	;volatile
   961                           
   962                           ;main.c: 77:             _delay((unsigned long)((2)*(4000000/4000.0)));
   963     07C9  3003               	movlw	3
   964     07CA  00FD               	movwf	??_main+1
   965     07CB  3097               	movlw	151
   966     07CC  00FC               	movwf	??_main
   967     07CD                     u577:
   968     07CD  0BFC               	decfsz	??_main,f
   969     07CE  2FCD               	goto	u577
   970     07CF  0BFD               	decfsz	??_main+1,f
   971     07D0  2FCD               	goto	u577
   972     07D1  2FD2               	nop2
   973                           
   974                           ;main.c: 78:             PORTAbits.RA0 = 1;
   975     07D2  1283               	bcf	3,5	;RP0=0, select bank0
   976     07D3  1303               	bcf	3,6	;RP1=0, select bank0
   977     07D4  1405               	bsf	5,0	;volatile
   978                           
   979                           ;main.c: 79:             _delay((unsigned long)((20)*(4000000/4000.0)));
   980     07D5  301A               	movlw	26
   981     07D6  00FD               	movwf	??_main+1
   982     07D7  30F8               	movlw	248
   983     07D8  00FC               	movwf	??_main
   984     07D9                     u587:
   985     07D9  0BFC               	decfsz	??_main,f
   986     07DA  2FD9               	goto	u587
   987     07DB  0BFD               	decfsz	??_main+1,f
   988     07DC  2FD9               	goto	u587
   989     07DD  0000               	nop
   990                           
   991                           ;main.c: 81:             error_send ++;
   992     07DE  1283               	bcf	3,5	;RP0=0, select bank0
   993     07DF  1303               	bcf	3,6	;RP1=0, select bank0
   994     07E0  0AA9               	incf	_error_send,f
   995     07E1  1903               	skipnz
   996     07E2  0AAA               	incf	_error_send+1,f
   997     07E3                     l1643:
   998                           
   999                           ;main.c: 95:         nrf24_powerDown();
  1000     07E3  2535               	fcall	_nrf24_powerDown
  1001                           
  1002                           ;main.c: 97:         PORTAbits.RA0 = 1;
  1003     07E4  1405               	bsf	5,0	;volatile
  1004                           
  1005                           ;main.c: 98:         TRISB = 0;
  1006     07E5  1683               	bsf	3,5	;RP0=1, select bank1
  1007     07E6  0186               	clrf	6	;volatile
  1008                           
  1009                           ;main.c: 99:         PORTB = 0;
  1010     07E7  1283               	bcf	3,5	;RP0=0, select bank0
  1011     07E8  0186               	clrf	6	;volatile
  1012                           
  1013                           ;main.c: 100:         TRISA = 0b00001000;
  1014     07E9  3008               	movlw	8
  1015     07EA  1683               	bsf	3,5	;RP0=1, select bank1
  1016     07EB  0085               	movwf	5	;volatile
  1017                           
  1018                           ;main.c: 101:         PORTA = 0b00000001;
  1019     07EC  3001               	movlw	1
  1020     07ED  1283               	bcf	3,5	;RP0=0, select bank0
  1021     07EE  0085               	movwf	5	;volatile
  1022                           
  1023                           ;main.c: 103:         count = 0;
  1024     07EF  01AC               	clrf	_count
  1025     07F0                     l63:	
  1026                           ;main.c: 104:         do {
  1027                           
  1028     07F0  0063               	sleep	;# 
  1029     07F1  300A               	movlw	10
  1030                           
  1031                           ;main.c: 106:             count++;
  1032     07F2  1283               	bcf	3,5	;RP0=0, select bank0
  1033     07F3  1303               	bcf	3,6	;RP1=0, select bank0
  1034     07F4  0AAC               	incf	_count,f
  1035                           
  1036                           ;main.c: 107:         } while (count < 10);
  1037     07F5  022C               	subwf	_count,w
  1038     07F6  1803               	btfsc	3,0
  1039     07F7  2F6D               	goto	l57
  1040     07F8  2FF0               	goto	l63
  1041     07F9                     __end_of_main:
  1042                           
  1043                           	psect	text1
  1044     06A0                     __ptext1:	
  1045 ;; *************** function _reliable_send *****************
  1046 ;; Defined at:
  1047 ;;		line 146 in file "main.c"
  1048 ;; Parameters:    Size  Location     Type
  1049 ;;  data            1    8[COMMON] PTR unsigned char 
  1050 ;;		 -> data_array(5), 
  1051 ;; Auto vars:     Size  Location     Type
  1052 ;;  i               1   11[COMMON] unsigned char 
  1053 ;; Return value:  Size  Location     Type
  1054 ;;                  1    wreg      unsigned char 
  1055 ;; Registers used:
  1056 ;;		wreg, fsr0l, fsr0h, status,2, status,0, btemp+1, pclath, cstack
  1057 ;; Tracked objects:
  1058 ;;		On entry : 0/0
  1059 ;;		On exit  : 0/0
  1060 ;;		Unchanged: 0/0
  1061 ;; Data sizes:     COMMON   BANK0   BANK1   BANK2
  1062 ;;      Params:         1       0       0       0
  1063 ;;      Locals:         1       0       0       0
  1064 ;;      Temps:          2       0       0       0
  1065 ;;      Totals:         4       0       0       0
  1066 ;;Total ram usage:        4 bytes
  1067 ;; Hardware stack levels used: 1
  1068 ;; Hardware stack levels required when called: 4
  1069 ;; This function calls:
  1070 ;;		_nrf24_isSending
  1071 ;;		_nrf24_messageStatus
  1072 ;;		_nrf24_send
  1073 ;; This function is called by:
  1074 ;;		_main
  1075 ;; This function uses a non-reentrant model
  1076 ;;
  1077                           
  1078     06A0                     _reliable_send:	
  1079                           ;psect for function _reliable_send
  1080                           
  1081                           
  1082                           ;main.c: 147:     for (uint8_t i = 0; i < 3; i++) {
  1083                           
  1084                           ;incstack = 0
  1085                           ; Regs used in _reliable_send: [wreg-fsr0h+status,2+status,0+btemp+1+pclath+cstack]
  1086     06A0  01FB               	clrf	reliable_send@i
  1087     06A1                     l1565:
  1088                           
  1089                           ;main.c: 148:         nrf24_send(data);
  1090     06A1  0878               	movf	reliable_send@data,w
  1091     06A2  00F7               	movwf	nrf24_send@value
  1092     06A3  25CA               	fcall	_nrf24_send
  1093     06A4                     l1567:	
  1094                           ;main.c: 149:         while (nrf24_isSending());
  1095                           
  1096     06A4  253A               	fcall	_nrf24_isSending
  1097     06A5  3A00               	xorlw	0
  1098     06A6  1D03               	skipz
  1099     06A7  2EA4               	goto	l1567
  1100                           
  1101                           ;main.c: 150:         temp = nrf24_messageStatus();
  1102     06A8  2540               	fcall	_nrf24_messageStatus
  1103     06A9  00AD               	movwf	_temp
  1104                           
  1105                           ;main.c: 151:         if (temp == 0)
  1106     06AA  082D               	movf	_temp,w
  1107     06AB  1903               	btfsc	3,2
  1108                           
  1109                           ;main.c: 152:             return 1;
  1110     06AC  3401               	retlw	1
  1111     06AD  032D               	decf	_temp,w
  1112     06AE  1D03               	btfss	3,2
  1113     06AF  2EB9               	goto	l1583
  1114                           
  1115                           ;main.c: 154:         _delay((unsigned long)((100)*(4000000/4000.0)));
  1116     06B0  3082               	movlw	130
  1117     06B1  00FA               	movwf	??_reliable_send+1
  1118     06B2  30DD               	movlw	221
  1119     06B3  00F9               	movwf	??_reliable_send
  1120     06B4                     u597:
  1121     06B4  0BF9               	decfsz	??_reliable_send,f
  1122     06B5  2EB4               	goto	u597
  1123     06B6  0BFA               	decfsz	??_reliable_send+1,f
  1124     06B7  2EB4               	goto	u597
  1125     06B8  2EB9               	nop2
  1126     06B9                     l1583:
  1127     06B9  3003               	movlw	3
  1128                           
  1129                           ;main.c: 155:     }
  1130     06BA  0AFB               	incf	reliable_send@i,f
  1131     06BB  027B               	subwf	reliable_send@i,w
  1132     06BC  1803               	btfsc	3,0
  1133                           
  1134                           ;main.c: 156:     return 0;
  1135     06BD  3400               	retlw	0
  1136     06BE  2EA1               	goto	l1565
  1137     06BF                     __end_of_reliable_send:
  1138                           
  1139                           	psect	text2
  1140     05CA                     __ptext2:	
  1141 ;; *************** function _nrf24_send *****************
  1142 ;; Defined at:
  1143 ;;		line 157 in file "nrf24l01p.c"
  1144 ;; Parameters:    Size  Location     Type
  1145 ;;  value           1    7[COMMON] PTR unsigned char 
  1146 ;;		 -> data_array(5), 
  1147 ;; Auto vars:     Size  Location     Type
  1148 ;;		None
  1149 ;; Return value:  Size  Location     Type
  1150 ;;                  1    wreg      void 
  1151 ;; Registers used:
  1152 ;;		wreg, fsr0l, fsr0h, status,2, status,0, btemp+1, pclath, cstack
  1153 ;; Tracked objects:
  1154 ;;		On entry : 0/0
  1155 ;;		On exit  : 300/0
  1156 ;;		Unchanged: 0/0
  1157 ;; Data sizes:     COMMON   BANK0   BANK1   BANK2
  1158 ;;      Params:         1       0       0       0
  1159 ;;      Locals:         0       0       0       0
  1160 ;;      Temps:          0       0       0       0
  1161 ;;      Totals:         1       0       0       0
  1162 ;;Total ram usage:        1 bytes
  1163 ;; Hardware stack levels used: 1
  1164 ;; Hardware stack levels required when called: 3
  1165 ;; This function calls:
  1166 ;;		_nrf24_powerUpTx
  1167 ;;		_nrf24_write_buf
  1168 ;;		_spi_rw
  1169 ;; This function is called by:
  1170 ;;		_reliable_send
  1171 ;; This function uses a non-reentrant model
  1172 ;;
  1173                           
  1174     05CA                     _nrf24_send:	
  1175                           ;psect for function _nrf24_send
  1176                           
  1177                           
  1178                           ;nrf24l01p.c: 159:     PORTAbits.RA2 = 0;
  1179                           
  1180                           ;incstack = 0
  1181                           ; Regs used in _nrf24_send: [wreg-fsr0h+status,2+status,0+btemp+1+pclath+cstack]
  1182     05CA  1283               	bcf	3,5	;RP0=0, select bank0
  1183     05CB  1303               	bcf	3,6	;RP1=0, select bank0
  1184     05CC  1105               	bcf	5,2	;volatile
  1185                           
  1186                           ;nrf24l01p.c: 160:     nrf24_powerUpTx();
  1187     05CD  2578               	fcall	_nrf24_powerUpTx
  1188                           
  1189                           ;nrf24l01p.c: 161:     PORTBbits.RB3 = 0;
  1190     05CE  1283               	bcf	3,5	;RP0=0, select bank0
  1191     05CF  1303               	bcf	3,6	;RP1=0, select bank0
  1192     05D0  1186               	bcf	6,3	;volatile
  1193                           
  1194                           ;nrf24l01p.c: 162:     spi_rw(0b11100001);
  1195     05D1  30E1               	movlw	225
  1196     05D2  25F1               	fcall	_spi_rw
  1197                           
  1198                           ;nrf24l01p.c: 163:     PORTBbits.RB3 = 1;
  1199     05D3  1586               	bsf	6,3	;volatile
  1200                           
  1201                           ;nrf24l01p.c: 165:     nrf24_write_buf(0b10100000, value, pay_len);
  1202     05D4  0877               	movf	nrf24_send@value,w
  1203     05D5  00F2               	movwf	nrf24_write_buf@pBuf
  1204     05D6  01F3               	clrf	nrf24_write_buf@pBuf+1
  1205     05D7  082B               	movf	_pay_len,w
  1206     05D8  00F4               	movwf	nrf24_write_buf@length
  1207     05D9  30A0               	movlw	160
  1208     05DA  2606               	fcall	_nrf24_write_buf
  1209                           
  1210                           ;nrf24l01p.c: 167:     PORTAbits.RA2 = 1;
  1211     05DB  1505               	bsf	5,2	;volatile
  1212     05DC  0008               	return
  1213     05DD                     __end_of_nrf24_send:
  1214                           
  1215                           	psect	text3
  1216     0578                     __ptext3:	
  1217 ;; *************** function _nrf24_powerUpTx *****************
  1218 ;; Defined at:
  1219 ;;		line 74 in file "nrf24l01p.c"
  1220 ;; Parameters:    Size  Location     Type
  1221 ;;		None
  1222 ;; Auto vars:     Size  Location     Type
  1223 ;;		None
  1224 ;; Return value:  Size  Location     Type
  1225 ;;                  1    wreg      void 
  1226 ;; Registers used:
  1227 ;;		wreg, status,2, status,0, pclath, cstack
  1228 ;; Tracked objects:
  1229 ;;		On entry : 300/0
  1230 ;;		On exit  : 0/0
  1231 ;;		Unchanged: 0/0
  1232 ;; Data sizes:     COMMON   BANK0   BANK1   BANK2
  1233 ;;      Params:         0       0       0       0
  1234 ;;      Locals:         0       0       0       0
  1235 ;;      Temps:          1       0       0       0
  1236 ;;      Totals:         1       0       0       0
  1237 ;;Total ram usage:        1 bytes
  1238 ;; Hardware stack levels used: 1
  1239 ;; Hardware stack levels required when called: 2
  1240 ;; This function calls:
  1241 ;;		_nrf24_write_reg
  1242 ;; This function is called by:
  1243 ;;		_nrf24_send
  1244 ;; This function uses a non-reentrant model
  1245 ;;
  1246                           
  1247     0578                     _nrf24_powerUpTx:	
  1248                           ;psect for function _nrf24_powerUpTx
  1249                           
  1250                           
  1251                           ;nrf24l01p.c: 77:     nrf24_write_reg(0x07, (1 << 6) | (1 << 5) | (1 << 4));
  1252                           
  1253                           ;incstack = 0
  1254                           ; Regs used in _nrf24_powerUpTx: [wreg+status,2+status,0+pclath+cstack]
  1255     0578  3070               	movlw	112
  1256     0579  00F2               	movwf	nrf24_write_reg@value
  1257     057A  3007               	movlw	7
  1258     057B  2547               	fcall	_nrf24_write_reg
  1259                           
  1260                           ;nrf24l01p.c: 79:     nrf24_write_reg(0x00, ((1 << 3) | (0 << 2)) | ((1 << 1) | (0 << 0)
      +                          ));
  1261     057C  300A               	movlw	10
  1262     057D  00F2               	movwf	nrf24_write_reg@value
  1263     057E  3000               	movlw	0
  1264     057F  2547               	fcall	_nrf24_write_reg
  1265                           
  1266                           ;nrf24l01p.c: 80:     _delay((unsigned long)((135)*(4000000/4000000.0)));
  1267     0580  302C               	movlw	44
  1268     0581  00F4               	movwf	??_nrf24_powerUpTx
  1269     0582                     u607:
  1270     0582  0BF4               	decfsz	??_nrf24_powerUpTx,f
  1271     0583  2D82               	goto	u607
  1272     0584  2D85               	nop2
  1273     0585  0008               	return
  1274     0586                     __end_of_nrf24_powerUpTx:
  1275                           
  1276                           	psect	text4
  1277     0540                     __ptext4:	
  1278 ;; *************** function _nrf24_messageStatus *****************
  1279 ;; Defined at:
  1280 ;;		line 204 in file "nrf24l01p.c"
  1281 ;; Parameters:    Size  Location     Type
  1282 ;;		None
  1283 ;; Auto vars:     Size  Location     Type
  1284 ;;  r_status        1    3[COMMON] unsigned char 
  1285 ;; Return value:  Size  Location     Type
  1286 ;;                  1    wreg      unsigned char 
  1287 ;; Registers used:
  1288 ;;		wreg, status,2, status,0, pclath, cstack
  1289 ;; Tracked objects:
  1290 ;;		On entry : 300/0
  1291 ;;		On exit  : 300/0
  1292 ;;		Unchanged: 0/0
  1293 ;; Data sizes:     COMMON   BANK0   BANK1   BANK2
  1294 ;;      Params:         0       0       0       0
  1295 ;;      Locals:         1       0       0       0
  1296 ;;      Temps:          0       0       0       0
  1297 ;;      Totals:         1       0       0       0
  1298 ;;Total ram usage:        1 bytes
  1299 ;; Hardware stack levels used: 1
  1300 ;; Hardware stack levels required when called: 2
  1301 ;; This function calls:
  1302 ;;		_nrf24_getStatus
  1303 ;; This function is called by:
  1304 ;;		_reliable_send
  1305 ;; This function uses a non-reentrant model
  1306 ;;
  1307                           
  1308     0540                     _nrf24_messageStatus:	
  1309                           ;psect for function _nrf24_messageStatus
  1310                           
  1311                           
  1312                           ;nrf24l01p.c: 205:     uint8_t r_status;;nrf24l01p.c: 207:     r_status = nrf24_getStatu
      +                          s();
  1313                           
  1314                           ;incstack = 0
  1315                           ; Regs used in _nrf24_messageStatus: [wreg+status,2+status,0+pclath+cstack]
  1316     0540  254F               	fcall	_nrf24_getStatus
  1317     0541  00F3               	movwf	nrf24_messageStatus@r_status
  1318                           
  1319                           ;nrf24l01p.c: 210:     if ((r_status & ((1 << 5)))) {
  1320     0542  1AF3               	btfsc	nrf24_messageStatus@r_status,5
  1321                           
  1322                           ;nrf24l01p.c: 211:         return 0;
  1323     0543  3400               	retlw	0
  1324                           
  1325                           ;nrf24l01p.c: 214:     else if ((r_status & ((1 << 4)))) {
  1326     0544  1A73               	btfsc	nrf24_messageStatus@r_status,4
  1327                           
  1328                           ;nrf24l01p.c: 215:         return 1;
  1329     0545  3401               	retlw	1
  1330                           
  1331                           ;nrf24l01p.c: 218:         return 0xFF;
  1332     0546  34FF               	retlw	255
  1333     0547                     __end_of_nrf24_messageStatus:
  1334                           
  1335                           	psect	text5
  1336     053A                     __ptext5:	
  1337 ;; *************** function _nrf24_isSending *****************
  1338 ;; Defined at:
  1339 ;;		line 175 in file "nrf24l01p.c"
  1340 ;; Parameters:    Size  Location     Type
  1341 ;;		None
  1342 ;; Auto vars:     Size  Location     Type
  1343 ;;  status          1    3[COMMON] unsigned char 
  1344 ;; Return value:  Size  Location     Type
  1345 ;;                  1    wreg      unsigned char 
  1346 ;; Registers used:
  1347 ;;		wreg, status,2, status,0, pclath, cstack
  1348 ;; Tracked objects:
  1349 ;;		On entry : 0/0
  1350 ;;		On exit  : 300/0
  1351 ;;		Unchanged: 0/0
  1352 ;; Data sizes:     COMMON   BANK0   BANK1   BANK2
  1353 ;;      Params:         0       0       0       0
  1354 ;;      Locals:         1       0       0       0
  1355 ;;      Temps:          0       0       0       0
  1356 ;;      Totals:         1       0       0       0
  1357 ;;Total ram usage:        1 bytes
  1358 ;; Hardware stack levels used: 1
  1359 ;; Hardware stack levels required when called: 2
  1360 ;; This function calls:
  1361 ;;		_nrf24_getStatus
  1362 ;; This function is called by:
  1363 ;;		_reliable_send
  1364 ;; This function uses a non-reentrant model
  1365 ;;
  1366                           
  1367     053A                     _nrf24_isSending:	
  1368                           ;psect for function _nrf24_isSending
  1369                           
  1370                           
  1371                           ;nrf24l01p.c: 176:     uint8_t status;;nrf24l01p.c: 179:     status = nrf24_getStatus();
  1372                           
  1373                           ;incstack = 0
  1374                           ; Regs used in _nrf24_isSending: [wreg+status,2+status,0+pclath+cstack]
  1375     053A  254F               	fcall	_nrf24_getStatus
  1376     053B  00F3               	movwf	nrf24_isSending@status
  1377                           
  1378                           ;nrf24l01p.c: 181:     if ((status & ((1 << 5) | (1 << 4)))) {
  1379     053C  3930               	andlw	48
  1380     053D  1D03               	btfss	3,2
  1381                           
  1382                           ;nrf24l01p.c: 182:         return 0;
  1383     053E  3400               	retlw	0
  1384                           
  1385                           ;nrf24l01p.c: 185:     return 1;
  1386     053F  3401               	retlw	1
  1387     0540                     __end_of_nrf24_isSending:
  1388                           
  1389                           	psect	text6
  1390     054F                     __ptext6:	
  1391 ;; *************** function _nrf24_getStatus *****************
  1392 ;; Defined at:
  1393 ;;		line 192 in file "nrf24l01p.c"
  1394 ;; Parameters:    Size  Location     Type
  1395 ;;		None
  1396 ;; Auto vars:     Size  Location     Type
  1397 ;;  r_status        1    2[COMMON] unsigned char 
  1398 ;; Return value:  Size  Location     Type
  1399 ;;                  1    wreg      unsigned char 
  1400 ;; Registers used:
  1401 ;;		wreg, status,2, status,0, pclath, cstack
  1402 ;; Tracked objects:
  1403 ;;		On entry : 0/0
  1404 ;;		On exit  : 300/0
  1405 ;;		Unchanged: 0/0
  1406 ;; Data sizes:     COMMON   BANK0   BANK1   BANK2
  1407 ;;      Params:         0       0       0       0
  1408 ;;      Locals:         1       0       0       0
  1409 ;;      Temps:          0       0       0       0
  1410 ;;      Totals:         1       0       0       0
  1411 ;;Total ram usage:        1 bytes
  1412 ;; Hardware stack levels used: 1
  1413 ;; Hardware stack levels required when called: 1
  1414 ;; This function calls:
  1415 ;;		_spi_rw
  1416 ;; This function is called by:
  1417 ;;		_nrf24_isSending
  1418 ;;		_nrf24_messageStatus
  1419 ;; This function uses a non-reentrant model
  1420 ;;
  1421                           
  1422     054F                     _nrf24_getStatus:	
  1423                           ;psect for function _nrf24_getStatus
  1424                           
  1425                           
  1426                           ;nrf24l01p.c: 193:     uint8_t r_status;;nrf24l01p.c: 194:     PORTBbits.RB3 = 0;
  1427                           
  1428                           ;incstack = 0
  1429                           ; Regs used in _nrf24_getStatus: [wreg+status,2+status,0+pclath+cstack]
  1430     054F  1283               	bcf	3,5	;RP0=0, select bank0
  1431     0550  1303               	bcf	3,6	;RP1=0, select bank0
  1432     0551  1186               	bcf	6,3	;volatile
  1433                           
  1434                           ;nrf24l01p.c: 195:     r_status = spi_rw(0b11111111);
  1435     0552  30FF               	movlw	255
  1436     0553  25F1               	fcall	_spi_rw
  1437     0554  00F2               	movwf	nrf24_getStatus@r_status
  1438                           
  1439                           ;nrf24l01p.c: 196:     PORTBbits.RB3 = 1;
  1440     0555  1586               	bsf	6,3	;volatile
  1441                           
  1442                           ;nrf24l01p.c: 197:     return r_status;
  1443     0556  0008               	return
  1444     0557                     __end_of_nrf24_getStatus:
  1445                           
  1446                           	psect	text7
  1447     06FB                     __ptext7:	
  1448 ;; *************** function _readTemp_Single *****************
  1449 ;; Defined at:
  1450 ;;		line 31 in file "ds18b20.c"
  1451 ;; Parameters:    Size  Location     Type
  1452 ;;  buf             1    6[COMMON] PTR unsigned short 
  1453 ;;		 -> temperature(2), 
  1454 ;;  minus           1    7[COMMON] PTR unsigned char 
  1455 ;;		 -> minus(1), 
  1456 ;; Auto vars:     Size  Location     Type
  1457 ;;  temp            2    2[BANK0 ] unsigned short 
  1458 ;;  i               1    1[BANK0 ] unsigned char 
  1459 ;;  tmp             1    0[BANK0 ] unsigned char 
  1460 ;;  fptmp           1    0        unsigned char 
  1461 ;; Return value:  Size  Location     Type
  1462 ;;                  1    wreg      unsigned char 
  1463 ;; Registers used:
  1464 ;;		wreg, fsr0l, fsr0h, status,2, status,0, pclath, cstack
  1465 ;; Tracked objects:
  1466 ;;		On entry : 300/0
  1467 ;;		On exit  : 0/0
  1468 ;;		Unchanged: 0/0
  1469 ;; Data sizes:     COMMON   BANK0   BANK1   BANK2
  1470 ;;      Params:         2       0       0       0
  1471 ;;      Locals:         0       4       0       0
  1472 ;;      Temps:          3       0       0       0
  1473 ;;      Totals:         5       4       0       0
  1474 ;;Total ram usage:        9 bytes
  1475 ;; Hardware stack levels used: 1
  1476 ;; Hardware stack levels required when called: 2
  1477 ;; This function calls:
  1478 ;;		___wmul
  1479 ;;		_ow_reset
  1480 ;;		_read_byte
  1481 ;;		_write_byte
  1482 ;; This function is called by:
  1483 ;;		_main
  1484 ;; This function uses a non-reentrant model
  1485 ;;
  1486                           
  1487     06FB                     _readTemp_Single:	
  1488                           ;psect for function _readTemp_Single
  1489                           
  1490                           
  1491                           ;ds18b20.c: 34:     uint8_t i, tmp, fptmp;;ds18b20.c: 36:     *minus = '+';
  1492                           
  1493                           ;incstack = 0
  1494                           ; Regs used in _readTemp_Single: [wreg-fsr0h+status,2+status,0+pclath+cstack]
  1495     06FB  0877               	movf	readTemp_Single@minus,w
  1496     06FC  0084               	movwf	4
  1497     06FD  302B               	movlw	43
  1498     06FE  1383               	bcf	3,7	;select IRP bank0
  1499     06FF  0080               	movwf	0
  1500                           
  1501                           ;ds18b20.c: 39:     if (!ow_reset())
  1502     0700  261B               	fcall	_ow_reset
  1503     0701  3A00               	xorlw	0
  1504     0702  1D03               	skipz
  1505     0703  3400               	retlw	0
  1506                           
  1507                           ;ds18b20.c: 40:     {;ds18b20.c: 41:         write_byte(0xCC);
  1508     0704  30CC               	movlw	204
  1509     0705  2667               	fcall	_write_byte
  1510                           
  1511                           ;ds18b20.c: 42:         write_byte(0x44);
  1512     0706  3044               	movlw	68
  1513     0707  2667               	fcall	_write_byte
  1514                           
  1515                           ;ds18b20.c: 48:     _delay((unsigned long)((750)*(4000000/4000.0)));
  1516                           
  1517                           ;ds18b20.c: 45:         return 0;
  1518                           
  1519                           ;ds18b20.c: 44:     } else
  1520     0708  3004               	movlw	4
  1521     0709  00FA               	movwf	??_readTemp_Single+2
  1522     070A  30CF               	movlw	207
  1523     070B  00F9               	movwf	??_readTemp_Single+1
  1524     070C  3001               	movlw	1
  1525     070D  00F8               	movwf	??_readTemp_Single
  1526     070E                     u617:
  1527     070E  0BF8               	decfsz	??_readTemp_Single,f
  1528     070F  2F0E               	goto	u617
  1529     0710  0BF9               	decfsz	??_readTemp_Single+1,f
  1530     0711  2F0E               	goto	u617
  1531     0712  0BFA               	decfsz	??_readTemp_Single+2,f
  1532     0713  2F0E               	goto	u617
  1533     0714  2F15               	nop2
  1534                           
  1535                           ;ds18b20.c: 49:     ow_reset();
  1536     0715  261B               	fcall	_ow_reset
  1537                           
  1538                           ;ds18b20.c: 50:     write_byte(0xCC);
  1539     0716  30CC               	movlw	204
  1540     0717  2667               	fcall	_write_byte
  1541                           
  1542                           ;ds18b20.c: 51:     write_byte(0xBE);
  1543     0718  30BE               	movlw	190
  1544     0719  2667               	fcall	_write_byte
  1545                           
  1546                           ;ds18b20.c: 52:     for (i = 0; i < 2; i++)
  1547     071A  1283               	bcf	3,5	;RP0=0, select bank0
  1548     071B  1303               	bcf	3,6	;RP1=0, select bank0
  1549     071C  01B7               	clrf	readTemp_Single@i
  1550     071D                     l1527:
  1551                           
  1552                           ;ds18b20.c: 53:     {;ds18b20.c: 54:         scratch[i] = read_byte();
  1553     071D  0837               	movf	readTemp_Single@i,w
  1554     071E  3E20               	addlw	(low (_scratch| 0))& (0+255)
  1555     071F  0084               	movwf	4
  1556     0720  2683               	fcall	_read_byte
  1557     0721  1383               	bcf	3,7	;select IRP bank0
  1558     0722  0080               	movwf	0
  1559     0723  3002               	movlw	2
  1560                           
  1561                           ;ds18b20.c: 55:     }
  1562     0724  1283               	bcf	3,5	;RP0=0, select bank0
  1563     0725  1303               	bcf	3,6	;RP1=0, select bank0
  1564     0726  0AB7               	incf	readTemp_Single@i,f
  1565     0727  0237               	subwf	readTemp_Single@i,w
  1566     0728  1C03               	skipc
  1567     0729  2F1D               	goto	l1527
  1568                           
  1569                           ;ds18b20.c: 57:     temp = (((uint16_t) scratch[1]) << 8) | ((uint16_t) scratch[0]);
  1570     072A  0821               	movf	_scratch+1,w
  1571     072B  00B9               	movwf	readTemp_Single@temp+1
  1572     072C  0820               	movf	_scratch,w
  1573     072D  00B8               	movwf	readTemp_Single@temp
  1574                           
  1575                           ;ds18b20.c: 60:     if (temp & 0x8000) {
  1576     072E  1FB9               	btfss	readTemp_Single@temp+1,7
  1577     072F  2F39               	goto	l1541
  1578                           
  1579                           ;ds18b20.c: 61:         temp = -temp;
  1580     0730  09B8               	comf	readTemp_Single@temp,f
  1581     0731  09B9               	comf	readTemp_Single@temp+1,f
  1582     0732  0AB8               	incf	readTemp_Single@temp,f
  1583     0733  1903               	skipnz
  1584     0734  0AB9               	incf	readTemp_Single@temp+1,f
  1585                           
  1586                           ;ds18b20.c: 62:         *minus = '-';
  1587     0735  0877               	movf	readTemp_Single@minus,w
  1588     0736  0084               	movwf	4
  1589     0737  302D               	movlw	45
  1590     0738  0080               	movwf	0
  1591     0739                     l1541:
  1592                           
  1593                           ;ds18b20.c: 65:     tmp = temp & 0x0f;
  1594     0739  0838               	movf	readTemp_Single@temp,w
  1595     073A  00B6               	movwf	readTemp_Single@tmp
  1596     073B  300F               	movlw	15
  1597     073C  05B6               	andwf	readTemp_Single@tmp,f
  1598                           
  1599                           ;ds18b20.c: 66:     tmp = fract[tmp];
  1600     073D  0836               	movf	readTemp_Single@tmp,w
  1601     073E  3E01               	addlw	low ((_fract-__stringbase)| (0+32768))
  1602     073F  0084               	movwf	4
  1603     0740  200B               	fcall	stringdir
  1604     0741  00B6               	movwf	readTemp_Single@tmp
  1605                           
  1606                           ;ds18b20.c: 67:     temp = temp >> 4;
  1607     0742  0E38               	swapf	readTemp_Single@temp,w
  1608     0743  390F               	andlw	15
  1609     0744  00B8               	movwf	readTemp_Single@temp
  1610     0745  0E39               	swapf	readTemp_Single@temp+1,w
  1611     0746  39F0               	andlw	240
  1612     0747  04B8               	iorwf	readTemp_Single@temp,f
  1613     0748  0E39               	swapf	readTemp_Single@temp+1,w
  1614     0749  390F               	andlw	15
  1615     074A  00B9               	movwf	readTemp_Single@temp+1
  1616                           
  1617                           ;ds18b20.c: 68:     temp = (temp & 0x00ff) * 10;
  1618     074B  0838               	movf	readTemp_Single@temp,w
  1619     074C  00F0               	movwf	___wmul@multiplier
  1620     074D  300A               	movlw	10
  1621     074E  01F1               	clrf	___wmul@multiplier+1
  1622     074F  00F2               	movwf	___wmul@multiplicand
  1623     0750  01F3               	clrf	___wmul@multiplicand+1
  1624     0751  2634               	fcall	___wmul
  1625     0752  0871               	movf	?___wmul+1,w
  1626     0753  00B9               	movwf	readTemp_Single@temp+1
  1627     0754  0870               	movf	?___wmul,w
  1628     0755  00B8               	movwf	readTemp_Single@temp
  1629                           
  1630                           ;ds18b20.c: 69:     temp = temp + tmp;
  1631     0756  0836               	movf	readTemp_Single@tmp,w
  1632     0757  0738               	addwf	readTemp_Single@temp,w
  1633     0758  00B8               	movwf	readTemp_Single@temp
  1634     0759  0839               	movf	readTemp_Single@temp+1,w
  1635     075A  1803               	skipnc
  1636     075B  0A39               	incf	readTemp_Single@temp+1,w
  1637     075C  00B9               	movwf	readTemp_Single@temp+1
  1638                           
  1639                           ;ds18b20.c: 81:     *buf = temp;
  1640     075D  0876               	movf	readTemp_Single@buf,w
  1641     075E  0084               	movwf	4
  1642     075F  0838               	movf	readTemp_Single@temp,w
  1643     0760  0080               	movwf	0
  1644     0761  0A84               	incf	4,f
  1645     0762  0839               	movf	readTemp_Single@temp+1,w
  1646     0763  0080               	movwf	0
  1647                           
  1648                           ;ds18b20.c: 82:     return 1;
  1649     0764  3401               	retlw	1
  1650     0765                     __end_of_readTemp_Single:
  1651                           
  1652                           	psect	text8
  1653     0683                     __ptext8:	
  1654 ;; *************** function _read_byte *****************
  1655 ;; Defined at:
  1656 ;;		line 50 in file "onewire.c"
  1657 ;; Parameters:    Size  Location     Type
  1658 ;;		None
  1659 ;; Auto vars:     Size  Location     Type
  1660 ;;  i               1    3[COMMON] unsigned char 
  1661 ;;  val             1    2[COMMON] unsigned char 
  1662 ;; Return value:  Size  Location     Type
  1663 ;;                  1    wreg      unsigned char 
  1664 ;; Registers used:
  1665 ;;		wreg, status,2, status,0, pclath, cstack
  1666 ;; Tracked objects:
  1667 ;;		On entry : 300/0
  1668 ;;		On exit  : 0/0
  1669 ;;		Unchanged: 0/0
  1670 ;; Data sizes:     COMMON   BANK0   BANK1   BANK2
  1671 ;;      Params:         0       0       0       0
  1672 ;;      Locals:         2       0       0       0
  1673 ;;      Temps:          1       0       0       0
  1674 ;;      Totals:         3       0       0       0
  1675 ;;Total ram usage:        3 bytes
  1676 ;; Hardware stack levels used: 1
  1677 ;; Hardware stack levels required when called: 1
  1678 ;; This function calls:
  1679 ;;		_read_bit
  1680 ;; This function is called by:
  1681 ;;		_readTemp_Single
  1682 ;; This function uses a non-reentrant model
  1683 ;;
  1684                           
  1685     0683                     _read_byte:	
  1686                           ;psect for function _read_byte
  1687                           
  1688                           
  1689                           ;onewire.c: 52:    uint8_t i;;onewire.c: 53:    uint8_t val = 0;
  1690                           
  1691                           ;incstack = 0
  1692                           ; Regs used in _read_byte: [wreg+status,2+status,0+pclath+cstack]
  1693     0683  01F2               	clrf	read_byte@val
  1694                           
  1695                           ;onewire.c: 55:    for(i=0;i<8;i++)
  1696     0684  01F3               	clrf	read_byte@i
  1697     0685                     l1451:
  1698                           
  1699                           ;onewire.c: 56:    {;onewire.c: 57:       if(read_bit()) val |= (0x01 << i);
  1700     0685  25A5               	fcall	_read_bit
  1701     0686  3A00               	xorlw	0
  1702     0687  1903               	skipnz
  1703     0688  2E94               	goto	l1455
  1704     0689  3001               	movlw	1
  1705     068A  00F1               	movwf	??_read_byte
  1706     068B  0A73               	incf	read_byte@i,w
  1707     068C  2E8F               	goto	u384
  1708     068D                     u385:
  1709     068D  1003               	clrc
  1710     068E  0DF1               	rlf	??_read_byte,f
  1711     068F                     u384:
  1712     068F  3EFF               	addlw	-1
  1713     0690  1D03               	skipz
  1714     0691  2E8D               	goto	u385
  1715     0692  0871               	movf	??_read_byte,w
  1716     0693  04F2               	iorwf	read_byte@val,f
  1717     0694                     l1455:
  1718                           
  1719                           ;onewire.c: 58:       _delay((unsigned long)((120)*(4000000/4000000.0)));
  1720     0694  3027               	movlw	39
  1721     0695  00F1               	movwf	??_read_byte
  1722     0696                     u627:
  1723     0696  0BF1               	decfsz	??_read_byte,f
  1724     0697  2E96               	goto	u627
  1725     0698  2E99               	nop2
  1726     0699  3008               	movlw	8
  1727                           
  1728                           ;onewire.c: 59:    }
  1729     069A  0AF3               	incf	read_byte@i,f
  1730     069B  0273               	subwf	read_byte@i,w
  1731     069C  1C03               	skipc
  1732     069D  2E85               	goto	l1451
  1733                           
  1734                           ;onewire.c: 61:    return val;
  1735     069E  0872               	movf	read_byte@val,w
  1736     069F  0008               	return
  1737     06A0                     __end_of_read_byte:
  1738                           
  1739                           	psect	text9
  1740     05A5                     __ptext9:	
  1741 ;; *************** function _read_bit *****************
  1742 ;; Defined at:
  1743 ;;		line 22 in file "onewire.c"
  1744 ;; Parameters:    Size  Location     Type
  1745 ;;		None
  1746 ;; Auto vars:     Size  Location     Type
  1747 ;;		None
  1748 ;; Return value:  Size  Location     Type
  1749 ;;                  1    wreg      unsigned char 
  1750 ;; Registers used:
  1751 ;;		wreg, status,2, status,0
  1752 ;; Tracked objects:
  1753 ;;		On entry : 0/0
  1754 ;;		On exit  : 300/0
  1755 ;;		Unchanged: 0/0
  1756 ;; Data sizes:     COMMON   BANK0   BANK1   BANK2
  1757 ;;      Params:         0       0       0       0
  1758 ;;      Locals:         0       0       0       0
  1759 ;;      Temps:          1       0       0       0
  1760 ;;      Totals:         1       0       0       0
  1761 ;;Total ram usage:        1 bytes
  1762 ;; Hardware stack levels used: 1
  1763 ;; This function calls:
  1764 ;;		Nothing
  1765 ;; This function is called by:
  1766 ;;		_read_byte
  1767 ;; This function uses a non-reentrant model
  1768 ;;
  1769                           
  1770     05A5                     _read_bit:	
  1771                           ;psect for function _read_bit
  1772                           
  1773                           
  1774                           ;onewire.c: 24:     PORTAbits.RA3 = 0;
  1775                           
  1776                           ;incstack = 0
  1777                           ; Regs used in _read_bit: [wreg+status,2+status,0]
  1778     05A5  1283               	bcf	3,5	;RP0=0, select bank0
  1779     05A6  1303               	bcf	3,6	;RP1=0, select bank0
  1780     05A7  1185               	bcf	5,3	;volatile
  1781                           
  1782                           ;onewire.c: 25:     TRISAbits.TRISA3 = 0;
  1783     05A8  1683               	bsf	3,5	;RP0=1, select bank1
  1784     05A9  1185               	bcf	5,3	;volatile
  1785                           
  1786                           ;onewire.c: 26:     _delay((unsigned long)((1)*(4000000/4000000.0)));
  1787     05AA  0000               	nop
  1788                           
  1789                           ;onewire.c: 27:     PORTAbits.RA3 = 1;
  1790                           
  1791                           ;onewire.c: 28:     TRISAbits.TRISA3 = 1;
  1792     05AB  265B               	fcall	PL4	;call to abstracted procedure
  1793                           
  1794                           ;onewire.c: 29:     _delay((unsigned long)((6)*(4000000/4000000.0)));
  1795     05AC  2DAD               	nop2	;2 cycle nop
  1796     05AD  2DAE               	nop2	;2 cycle nop
  1797     05AE  2DAF               	nop2	;2 cycle nop
  1798                           
  1799                           ;onewire.c: 30:    return(PORTAbits.RA3);
  1800     05AF  1283               	bcf	3,5	;RP0=0, select bank0
  1801     05B0  1303               	bcf	3,6	;RP1=0, select bank0
  1802     05B1  0C05               	rrf	5,w	;volatile
  1803     05B2  00F0               	movwf	??_read_bit
  1804     05B3  0CF0               	rrf	??_read_bit,f
  1805     05B4  0C70               	rrf	??_read_bit,w
  1806     05B5  3901               	andlw	1
  1807     05B6  0008               	return
  1808     05B7                     __end_of_read_bit:
  1809                           
  1810                           	psect	text10
  1811     0634                     __ptext10:	
  1812 ;; *************** function ___wmul *****************
  1813 ;; Defined at:
  1814 ;;		line 15 in file "C:\Program Files\Microchip\xc8\v3.00\pic\sources\c99\common\Umul16.c"
  1815 ;; Parameters:    Size  Location     Type
  1816 ;;  multiplier      2    0[COMMON] unsigned int 
  1817 ;;  multiplicand    2    2[COMMON] unsigned int 
  1818 ;; Auto vars:     Size  Location     Type
  1819 ;;  product         2    4[COMMON] unsigned int 
  1820 ;; Return value:  Size  Location     Type
  1821 ;;                  2    0[COMMON] unsigned int 
  1822 ;; Registers used:
  1823 ;;		wreg, status,2, status,0
  1824 ;; Tracked objects:
  1825 ;;		On entry : B00/0
  1826 ;;		On exit  : B00/0
  1827 ;;		Unchanged: B00/0
  1828 ;; Data sizes:     COMMON   BANK0   BANK1   BANK2
  1829 ;;      Params:         4       0       0       0
  1830 ;;      Locals:         2       0       0       0
  1831 ;;      Temps:          0       0       0       0
  1832 ;;      Totals:         6       0       0       0
  1833 ;;Total ram usage:        6 bytes
  1834 ;; Hardware stack levels used: 1
  1835 ;; This function calls:
  1836 ;;		Nothing
  1837 ;; This function is called by:
  1838 ;;		_readTemp_Single
  1839 ;; This function uses a non-reentrant model
  1840 ;;
  1841                           
  1842     0634                     ___wmul:	
  1843                           ;psect for function ___wmul
  1844                           
  1845                           
  1846                           ;incstack = 0
  1847                           ; Regs used in ___wmul: [wreg+status,2+status,0]
  1848     0634  01F4               	clrf	___wmul@product
  1849     0635  01F5               	clrf	___wmul@product+1
  1850     0636                     l1465:
  1851     0636  1C70               	btfss	___wmul@multiplier,0
  1852     0637  2E3E               	goto	l1469
  1853     0638  0872               	movf	___wmul@multiplicand,w
  1854     0639  07F4               	addwf	___wmul@product,f
  1855     063A  1803               	skipnc
  1856     063B  0AF5               	incf	___wmul@product+1,f
  1857     063C  0873               	movf	___wmul@multiplicand+1,w
  1858     063D  07F5               	addwf	___wmul@product+1,f
  1859     063E                     l1469:
  1860     063E  1003               	clrc
  1861     063F  0DF2               	rlf	___wmul@multiplicand,f
  1862     0640  0DF3               	rlf	___wmul@multiplicand+1,f
  1863     0641  1003               	clrc
  1864     0642  0CF1               	rrf	___wmul@multiplier+1,f
  1865     0643  0CF0               	rrf	___wmul@multiplier,f
  1866     0644  0870               	movf	___wmul@multiplier,w
  1867     0645  0471               	iorwf	___wmul@multiplier+1,w
  1868     0646  1D03               	btfss	3,2
  1869     0647  2E36               	goto	l1465
  1870     0648  0875               	movf	___wmul@product+1,w
  1871     0649  00F1               	movwf	?___wmul+1
  1872     064A  0874               	movf	___wmul@product,w
  1873     064B  00F0               	movwf	?___wmul
  1874     064C  0008               	return
  1875     064D                     __end_of___wmul:
  1876                           
  1877                           	psect	text11
  1878     0535                     __ptext11:	
  1879 ;; *************** function _nrf24_powerDown *****************
  1880 ;; Defined at:
  1881 ;;		line 83 in file "nrf24l01p.c"
  1882 ;; Parameters:    Size  Location     Type
  1883 ;;		None
  1884 ;; Auto vars:     Size  Location     Type
  1885 ;;		None
  1886 ;; Return value:  Size  Location     Type
  1887 ;;                  1    wreg      void 
  1888 ;; Registers used:
  1889 ;;		wreg, status,2, status,0, pclath, cstack
  1890 ;; Tracked objects:
  1891 ;;		On entry : 300/0
  1892 ;;		On exit  : 300/0
  1893 ;;		Unchanged: 0/0
  1894 ;; Data sizes:     COMMON   BANK0   BANK1   BANK2
  1895 ;;      Params:         0       0       0       0
  1896 ;;      Locals:         0       0       0       0
  1897 ;;      Temps:          0       0       0       0
  1898 ;;      Totals:         0       0       0       0
  1899 ;;Total ram usage:        0 bytes
  1900 ;; Hardware stack levels used: 1
  1901 ;; Hardware stack levels required when called: 2
  1902 ;; This function calls:
  1903 ;;		_nrf24_write_reg
  1904 ;; This function is called by:
  1905 ;;		_main
  1906 ;; This function uses a non-reentrant model
  1907 ;;
  1908                           
  1909     0535                     _nrf24_powerDown:	
  1910                           ;psect for function _nrf24_powerDown
  1911                           
  1912                           
  1913                           ;nrf24l01p.c: 84:     PORTAbits.RA2 = 0;
  1914                           
  1915                           ;incstack = 0
  1916                           ; Regs used in _nrf24_powerDown: [wreg+status,2+status,0+pclath+cstack]
  1917     0535  1105               	bcf	5,2	;volatile
  1918                           
  1919                           ;nrf24l01p.c: 85:     nrf24_write_reg(0x00, ((1 << 3) | (0 << 2)));
  1920     0536  3008               	movlw	8
  1921     0537  00F2               	movwf	nrf24_write_reg@value
  1922     0538  3000               	movlw	0
  1923     0539  2D47               	ljmp	_nrf24_write_reg
  1924     053A                     __end_of_nrf24_powerDown:
  1925                           
  1926                           	psect	text12
  1927     05B7                     __ptext12:	
  1928 ;; *************** function _init_Cpu *****************
  1929 ;; Defined at:
  1930 ;;		line 122 in file "main.c"
  1931 ;; Parameters:    Size  Location     Type
  1932 ;;		None
  1933 ;; Auto vars:     Size  Location     Type
  1934 ;;		None
  1935 ;; Return value:  Size  Location     Type
  1936 ;;                  1    wreg      void 
  1937 ;; Registers used:
  1938 ;;		wreg, fsr0l, fsr0h, status,2, status,0, btemp+1, pclath, cstack
  1939 ;; Tracked objects:
  1940 ;;		On entry : B00/0
  1941 ;;		On exit  : 300/100
  1942 ;;		Unchanged: 0/0
  1943 ;; Data sizes:     COMMON   BANK0   BANK1   BANK2
  1944 ;;      Params:         0       0       0       0
  1945 ;;      Locals:         0       0       0       0
  1946 ;;      Temps:          0       0       0       0
  1947 ;;      Totals:         0       0       0       0
  1948 ;;Total ram usage:        0 bytes
  1949 ;; Hardware stack levels used: 1
  1950 ;; Hardware stack levels required when called: 4
  1951 ;; This function calls:
  1952 ;;		_init_ds18b20
  1953 ;;		_init_uart
  1954 ;;		_nrf24_init
  1955 ;;		_spi_init
  1956 ;; This function is called by:
  1957 ;;		_main
  1958 ;; This function uses a non-reentrant model
  1959 ;;
  1960                           
  1961     05B7                     _init_Cpu:	
  1962                           ;psect for function _init_Cpu
  1963                           
  1964                           
  1965                           ;main.c: 123:     PORTA = 0b00000001;
  1966                           
  1967                           ;incstack = 0
  1968                           ; Regs used in _init_Cpu: [wreg-fsr0h+status,2+status,0+btemp+1+pclath+cstack]
  1969     05B7  3001               	movlw	1
  1970     05B8  0085               	movwf	5	;volatile
  1971                           
  1972                           ;main.c: 124:     CMCON = 0x07;
  1973     05B9  3007               	movlw	7
  1974     05BA  009F               	movwf	31	;volatile
  1975                           
  1976                           ;main.c: 125:     TRISA = 0;
  1977     05BB  1683               	bsf	3,5	;RP0=1, select bank1
  1978     05BC  0185               	clrf	5	;volatile
  1979                           
  1980                           ;main.c: 126:     OPTION_REGbits.PSA = 1;
  1981     05BD  1581               	bsf	1,3	;volatile
  1982                           
  1983                           ;main.c: 127:     OPTION_REGbits.PS0 = 1;
  1984     05BE  1401               	bsf	1,0	;volatile
  1985                           
  1986                           ;main.c: 128:     OPTION_REGbits.PS1 = 1;
  1987     05BF  1481               	bsf	1,1	;volatile
  1988                           
  1989                           ;main.c: 129:     OPTION_REGbits.PS2 = 1;
  1990     05C0  1501               	bsf	1,2	;volatile
  1991                           
  1992                           ;main.c: 131:     PORTAbits.RA3 = 1;
  1993     05C1  1283               	bcf	3,5	;RP0=0, select bank0
  1994     05C2  1585               	bsf	5,3	;volatile
  1995                           
  1996                           ;main.c: 133:     spi_init();
  1997     05C3  255F               	fcall	_spi_init
  1998                           
  1999                           ;main.c: 134:     init_ds18b20();
  2000     05C4  256A               	fcall	_init_ds18b20
  2001                           
  2002                           ;main.c: 135:     nrf24_init(123, 5);
  2003     05C5  3005               	movlw	5
  2004     05C6  00F8               	movwf	nrf24_init@pay_length
  2005     05C7  307B               	movlw	123
  2006     05C8  26BF               	fcall	_nrf24_init
  2007                           
  2008                           ;main.c: 136:     init_uart();
  2009     05C9  2D86               	ljmp	l1399
  2010     05CA                     __end_of_init_Cpu:
  2011                           
  2012                           	psect	text13
  2013     055F                     __ptext13:	
  2014 ;; *************** function _spi_init *****************
  2015 ;; Defined at:
  2016 ;;		line 3 in file "spi.c"
  2017 ;; Parameters:    Size  Location     Type
  2018 ;;		None
  2019 ;; Auto vars:     Size  Location     Type
  2020 ;;		None
  2021 ;; Return value:  Size  Location     Type
  2022 ;;                  1    wreg      void 
  2023 ;; Registers used:
  2024 ;;		None
  2025 ;; Tracked objects:
  2026 ;;		On entry : 0/0
  2027 ;;		On exit  : 300/0
  2028 ;;		Unchanged: 0/0
  2029 ;; Data sizes:     COMMON   BANK0   BANK1   BANK2
  2030 ;;      Params:         0       0       0       0
  2031 ;;      Locals:         0       0       0       0
  2032 ;;      Temps:          0       0       0       0
  2033 ;;      Totals:         0       0       0       0
  2034 ;;Total ram usage:        0 bytes
  2035 ;; Hardware stack levels used: 1
  2036 ;; This function calls:
  2037 ;;		Nothing
  2038 ;; This function is called by:
  2039 ;;		_main
  2040 ;;		_init_Cpu
  2041 ;; This function uses a non-reentrant model
  2042 ;;
  2043                           
  2044     055F                     _spi_init:	
  2045                           ;psect for function _spi_init
  2046                           
  2047                           
  2048                           ;spi.c: 4:     TRISBbits.TRISB0 = 1;
  2049                           
  2050                           ;incstack = 0
  2051                           ; Regs used in _spi_init: []
  2052     055F  1683               	bsf	3,5	;RP0=1, select bank1
  2053     0560  1303               	bcf	3,6	;RP1=0, select bank1
  2054     0561  1406               	bsf	6,0	;volatile
  2055                           
  2056                           ;spi.c: 5:     TRISAbits.TRISA1 = 0;
  2057     0562  1085               	bcf	5,1	;volatile
  2058                           
  2059                           ;spi.c: 6:     TRISAbits.TRISA2 = 0;
  2060     0563  1105               	bcf	5,2	;volatile
  2061                           
  2062                           ;spi.c: 7:     TRISBbits.TRISB3 = 0;
  2063     0564  1186               	bcf	6,3	;volatile
  2064                           
  2065                           ;spi.c: 8:     TRISBbits.TRISB4 = 0;
  2066     0565  1206               	bcf	6,4	;volatile
  2067                           
  2068                           ;spi.c: 9:     TRISBbits.TRISB5 = 1;
  2069     0566  1686               	bsf	6,5	;volatile
  2070                           
  2071                           ;spi.c: 10:     PORTBbits.RB3 = 1;
  2072     0567  1283               	bcf	3,5	;RP0=0, select bank0
  2073     0568  1586               	bsf	6,3	;volatile
  2074     0569  0008               	return
  2075     056A                     __end_of_spi_init:
  2076                           
  2077                           	psect	text14
  2078     06BF                     __ptext14:	
  2079 ;; *************** function _nrf24_init *****************
  2080 ;; Defined at:
  2081 ;;		line 13 in file "nrf24l01p.c"
  2082 ;; Parameters:    Size  Location     Type
  2083 ;;  channel         1    wreg     unsigned char 
  2084 ;;  pay_length      1    8[COMMON] unsigned char 
  2085 ;; Auto vars:     Size  Location     Type
  2086 ;;  channel         1    9[COMMON] unsigned char 
  2087 ;; Return value:  Size  Location     Type
  2088 ;;                  1    wreg      void 
  2089 ;; Registers used:
  2090 ;;		wreg, fsr0l, fsr0h, status,2, status,0, btemp+1, pclath, cstack
  2091 ;; Tracked objects:
  2092 ;;		On entry : 0/0
  2093 ;;		On exit  : 0/0
  2094 ;;		Unchanged: 0/0
  2095 ;; Data sizes:     COMMON   BANK0   BANK1   BANK2
  2096 ;;      Params:         1       0       0       0
  2097 ;;      Locals:         1       0       0       0
  2098 ;;      Temps:          0       0       0       0
  2099 ;;      Totals:         2       0       0       0
  2100 ;;Total ram usage:        2 bytes
  2101 ;; Hardware stack levels used: 1
  2102 ;; Hardware stack levels required when called: 3
  2103 ;; This function calls:
  2104 ;;		_nrf24_powerUpRx
  2105 ;;		_nrf24_rx_address
  2106 ;;		_nrf24_tx_address
  2107 ;;		_nrf24_write_reg
  2108 ;; This function is called by:
  2109 ;;		_main
  2110 ;;		_init_Cpu
  2111 ;; This function uses a non-reentrant model
  2112 ;;
  2113                           
  2114     06BF                     _nrf24_init:	
  2115                           ;psect for function _nrf24_init
  2116                           
  2117                           
  2118                           ;incstack = 0
  2119                           ; Regs used in _nrf24_init: [wreg-fsr0h+status,2+status,0+btemp+1+pclath+cstack]
  2120                           ;nrf24_init@channel stored from wreg
  2121     06BF  00F9               	movwf	nrf24_init@channel
  2122                           
  2123                           ;nrf24l01p.c: 15:     PORTBbits.RB3 = 1;
  2124     06C0  1283               	bcf	3,5	;RP0=0, select bank0
  2125     06C1  1303               	bcf	3,6	;RP1=0, select bank0
  2126     06C2  1586               	bsf	6,3	;volatile
  2127                           
  2128                           ;nrf24l01p.c: 16:     PORTAbits.RA2 = 0;
  2129     06C3  1105               	bcf	5,2	;volatile
  2130                           
  2131                           ;nrf24l01p.c: 17:     pay_len = pay_length;
  2132     06C4  0878               	movf	nrf24_init@pay_length,w
  2133     06C5  00AB               	movwf	_pay_len
  2134                           
  2135                           ;nrf24l01p.c: 19:     nrf24_tx_address(nrf_tx_address);
  2136     06C6  3016               	movlw	(low ((_nrf_tx_address-__stringbase)| (0+32768)))& (0+255)
  2137     06C7  00F7               	movwf	nrf24_tx_address@adr
  2138     06C8  2595               	fcall	_nrf24_tx_address
  2139                           
  2140                           ;nrf24l01p.c: 20:     nrf24_rx_address(nrf_rx_address);
  2141     06C9  3011               	movlw	(low ((_nrf_rx_address-__stringbase)| (0+32768)))& (0+255)
  2142     06CA  00F7               	movwf	nrf24_rx_address@adr
  2143     06CB  2531               	fcall	_nrf24_rx_address
  2144                           
  2145                           ;nrf24l01p.c: 22:     nrf24_write_reg(0x05, channel);
  2146     06CC  0879               	movf	nrf24_init@channel,w
  2147     06CD  00F2               	movwf	nrf24_write_reg@value
  2148     06CE  3005               	movlw	5
  2149     06CF  2547               	fcall	_nrf24_write_reg
  2150     06D0  3011               	movlw	17
  2151                           
  2152                           ;nrf24l01p.c: 24:     nrf24_write_reg(0x11, 0x00);
  2153     06D1  01F2               	clrf	nrf24_write_reg@value
  2154     06D2  2547               	fcall	_nrf24_write_reg
  2155                           
  2156                           ;nrf24l01p.c: 25:     nrf24_write_reg(0x12, pay_length);
  2157     06D3  0878               	movf	nrf24_init@pay_length,w
  2158     06D4  00F2               	movwf	nrf24_write_reg@value
  2159     06D5  3012               	movlw	18
  2160     06D6  2547               	fcall	_nrf24_write_reg
  2161     06D7  3013               	movlw	19
  2162                           
  2163                           ;nrf24l01p.c: 26:     nrf24_write_reg(0x13, 0x00);
  2164     06D8  01F2               	clrf	nrf24_write_reg@value
  2165     06D9  2547               	fcall	_nrf24_write_reg
  2166     06DA  3014               	movlw	20
  2167                           
  2168                           ;nrf24l01p.c: 27:     nrf24_write_reg(0x14, 0x00);
  2169     06DB  01F2               	clrf	nrf24_write_reg@value
  2170     06DC  2547               	fcall	_nrf24_write_reg
  2171     06DD  3015               	movlw	21
  2172                           
  2173                           ;nrf24l01p.c: 28:     nrf24_write_reg(0x15, 0x00);
  2174     06DE  01F2               	clrf	nrf24_write_reg@value
  2175     06DF  2547               	fcall	_nrf24_write_reg
  2176     06E0  3016               	movlw	22
  2177                           
  2178                           ;nrf24l01p.c: 29:     nrf24_write_reg(0x16, 0x00);
  2179     06E1  01F2               	clrf	nrf24_write_reg@value
  2180     06E2  2547               	fcall	_nrf24_write_reg
  2181                           
  2182                           ;nrf24l01p.c: 32:     nrf24_write_reg(0x06, (1 << 5) | (0 << 3) | ((0x03) << 1));
  2183     06E3  3026               	movlw	38
  2184     06E4  00F2               	movwf	nrf24_write_reg@value
  2185     06E5  3006               	movlw	6
  2186     06E6  2547               	fcall	_nrf24_write_reg
  2187                           
  2188                           ;nrf24l01p.c: 35:     nrf24_write_reg(0x00, ((1 << 3) | (0 << 2)));
  2189     06E7  3008               	movlw	8
  2190     06E8  00F2               	movwf	nrf24_write_reg@value
  2191     06E9  3000               	movlw	0
  2192     06EA  2547               	fcall	_nrf24_write_reg
  2193                           
  2194                           ;nrf24l01p.c: 38:     nrf24_write_reg(0x01, (1 << 0) | (1 << 1) | (0 << 2) | (0 << 3) | 
      +                          (0 << 4) | (0 << 5));
  2195     06EB  3003               	movlw	3
  2196     06EC  00F2               	movwf	nrf24_write_reg@value
  2197     06ED  3001               	movlw	1
  2198     06EE  2547               	fcall	_nrf24_write_reg
  2199                           
  2200                           ;nrf24l01p.c: 41:     nrf24_write_reg(0x02, (1 << 0) | (1 << 1) | (0 << 2) | (0 << 3) | 
      +                          (0 << 4) | (0 << 5));
  2201     06EF  3003               	movlw	3
  2202     06F0  00F2               	movwf	nrf24_write_reg@value
  2203     06F1  3002               	movlw	2
  2204     06F2  2547               	fcall	_nrf24_write_reg
  2205                           
  2206                           ;nrf24l01p.c: 44:     nrf24_write_reg(0x04, (0x0F << 4) | (0x0F << 0));
  2207     06F3  30FF               	movlw	255
  2208     06F4  00F2               	movwf	nrf24_write_reg@value
  2209     06F5  3004               	movlw	4
  2210     06F6  2547               	fcall	_nrf24_write_reg
  2211     06F7  301C               	movlw	28
  2212                           
  2213                           ;nrf24l01p.c: 47:     nrf24_write_reg(0x1C, (0 << 0) | (0 << 1) | (0 << 2) | (0 << 3) | 
      +                          (0 << 4) | (0 << 5));
  2214     06F8  01F2               	clrf	nrf24_write_reg@value
  2215     06F9  2547               	fcall	_nrf24_write_reg
  2216                           
  2217                           ;nrf24l01p.c: 50:     nrf24_powerUpRx();
  2218     06FA  2DDD               	ljmp	l1293
  2219     06FB                     __end_of_nrf24_init:
  2220                           
  2221                           	psect	text15
  2222     0595                     __ptext15:	
  2223 ;; *************** function _nrf24_tx_address *****************
  2224 ;; Defined at:
  2225 ;;		line 142 in file "nrf24l01p.c"
  2226 ;; Parameters:    Size  Location     Type
  2227 ;;  adr             1    7[COMMON] PTR const unsigned char 
  2228 ;;		 -> nrf_tx_address(5), 
  2229 ;; Auto vars:     Size  Location     Type
  2230 ;;		None
  2231 ;; Return value:  Size  Location     Type
  2232 ;;                  1    wreg      void 
  2233 ;; Registers used:
  2234 ;;		wreg, fsr0l, fsr0h, status,2, status,0, btemp+1, pclath, cstack
  2235 ;; Tracked objects:
  2236 ;;		On entry : 300/0
  2237 ;;		On exit  : 300/0
  2238 ;;		Unchanged: 0/0
  2239 ;; Data sizes:     COMMON   BANK0   BANK1   BANK2
  2240 ;;      Params:         1       0       0       0
  2241 ;;      Locals:         0       0       0       0
  2242 ;;      Temps:          0       0       0       0
  2243 ;;      Totals:         1       0       0       0
  2244 ;;Total ram usage:        1 bytes
  2245 ;; Hardware stack levels used: 1
  2246 ;; Hardware stack levels required when called: 2
  2247 ;; This function calls:
  2248 ;;		_nrf24_write_buf
  2249 ;; This function is called by:
  2250 ;;		_nrf24_init
  2251 ;; This function uses a non-reentrant model
  2252 ;;
  2253                           
  2254     0595                     _nrf24_tx_address:	
  2255                           ;psect for function _nrf24_tx_address
  2256                           
  2257                           
  2258                           ;nrf24l01p.c: 144:     nrf24_write_buf(0b00100000 | 0x0A, adr, 5);
  2259                           
  2260                           ;incstack = 0
  2261                           ; Regs used in _nrf24_tx_address: [wreg-fsr0h+status,2+status,0+btemp+1+pclath+cstack]
  2262     0595  0877               	movf	nrf24_tx_address@adr,w
  2263     0596  259D               	fcall	PL2	;call to abstracted procedure
  2264     0597  302A               	movlw	42
  2265     0598  2606               	fcall	_nrf24_write_buf
  2266                           
  2267                           ;nrf24l01p.c: 145:     nrf24_write_buf(0b00100000 | 0x10, adr, 5);
  2268     0599  0877               	movf	nrf24_tx_address@adr,w
  2269     059A  259D               	fcall	PL2	;call to abstracted procedure
  2270     059B  3030               	movlw	48
  2271     059C  2E06               	ljmp	_nrf24_write_buf
  2272     059D                     __end_of_nrf24_tx_address:
  2273     059D                     PL2:
  2274     059D  00F2               	movwf	nrf24_write_buf@pBuf
  2275     059E  3000               	movlw	0
  2276     059F  1D03               	btfss	3,2
  2277     05A0  3080               	movlw	128
  2278     05A1  00F3               	movwf	nrf24_write_buf@pBuf+1
  2279     05A2  3005               	movlw	5
  2280     05A3  00F4               	movwf	nrf24_write_buf@length
  2281     05A4  0008               	return
  2282     05A5                     __end_ofPL2:
  2283                           
  2284                           	psect	text16
  2285     0531                     __ptext16:	
  2286 ;; *************** function _nrf24_rx_address *****************
  2287 ;; Defined at:
  2288 ;;		line 149 in file "nrf24l01p.c"
  2289 ;; Parameters:    Size  Location     Type
  2290 ;;  adr             1    7[COMMON] PTR const unsigned char 
  2291 ;;		 -> nrf_rx_address(5), 
  2292 ;; Auto vars:     Size  Location     Type
  2293 ;;		None
  2294 ;; Return value:  Size  Location     Type
  2295 ;;                  1    wreg      void 
  2296 ;; Registers used:
  2297 ;;		wreg, fsr0l, fsr0h, status,2, status,0, btemp+1, pclath, cstack
  2298 ;; Tracked objects:
  2299 ;;		On entry : 300/0
  2300 ;;		On exit  : 300/0
  2301 ;;		Unchanged: 0/0
  2302 ;; Data sizes:     COMMON   BANK0   BANK1   BANK2
  2303 ;;      Params:         1       0       0       0
  2304 ;;      Locals:         0       0       0       0
  2305 ;;      Temps:          0       0       0       0
  2306 ;;      Totals:         1       0       0       0
  2307 ;;Total ram usage:        1 bytes
  2308 ;; Hardware stack levels used: 1
  2309 ;; Hardware stack levels required when called: 2
  2310 ;; This function calls:
  2311 ;;		_nrf24_write_buf
  2312 ;; This function is called by:
  2313 ;;		_nrf24_init
  2314 ;; This function uses a non-reentrant model
  2315 ;;
  2316                           
  2317     0531                     _nrf24_rx_address:	
  2318                           ;psect for function _nrf24_rx_address
  2319                           
  2320                           
  2321                           ;nrf24l01p.c: 151:     nrf24_write_buf(0b00100000 | 0x0B, adr, 5);
  2322                           
  2323                           ;incstack = 0
  2324                           ; Regs used in _nrf24_rx_address: [wreg-fsr0h+status,2+status,0+btemp+1+pclath+cstack]
  2325     0531  0877               	movf	nrf24_rx_address@adr,w
  2326     0532  259D               	fcall	PL2	;call to abstracted procedure
  2327     0533  302B               	movlw	43
  2328     0534  2E06               	ljmp	_nrf24_write_buf
  2329     0535                     __end_of_nrf24_rx_address:
  2330                           
  2331                           	psect	text17
  2332     0606                     __ptext17:	
  2333 ;; *************** function _nrf24_write_buf *****************
  2334 ;; Defined at:
  2335 ;;		line 114 in file "nrf24l01p.c"
  2336 ;; Parameters:    Size  Location     Type
  2337 ;;  reg             1    wreg     unsigned char 
  2338 ;;  pBuf            2    2[COMMON] PTR const unsigned char 
  2339 ;;		 -> nrf_rx_address(5), nrf_tx_address(5), data_array(5), 
  2340 ;;  length          1    4[COMMON] unsigned char 
  2341 ;; Auto vars:     Size  Location     Type
  2342 ;;  reg             1    5[COMMON] unsigned char 
  2343 ;;  i               1    6[COMMON] unsigned char 
  2344 ;; Return value:  Size  Location     Type
  2345 ;;                  1    wreg      void 
  2346 ;; Registers used:
  2347 ;;		wreg, fsr0l, fsr0h, status,2, status,0, btemp+1, pclath, cstack
  2348 ;; Tracked objects:
  2349 ;;		On entry : 300/0
  2350 ;;		On exit  : 300/0
  2351 ;;		Unchanged: 0/0
  2352 ;; Data sizes:     COMMON   BANK0   BANK1   BANK2
  2353 ;;      Params:         3       0       0       0
  2354 ;;      Locals:         2       0       0       0
  2355 ;;      Temps:          0       0       0       0
  2356 ;;      Totals:         5       0       0       0
  2357 ;;Total ram usage:        5 bytes
  2358 ;; Hardware stack levels used: 1
  2359 ;; Hardware stack levels required when called: 1
  2360 ;; This function calls:
  2361 ;;		_spi_rw
  2362 ;; This function is called by:
  2363 ;;		_nrf24_tx_address
  2364 ;;		_nrf24_rx_address
  2365 ;;		_nrf24_send
  2366 ;; This function uses a non-reentrant model
  2367 ;;
  2368                           
  2369     0606                     _nrf24_write_buf:	
  2370                           ;psect for function _nrf24_write_buf
  2371                           
  2372                           
  2373                           ;incstack = 0
  2374                           ; Regs used in _nrf24_write_buf: [wreg-fsr0h+status,2+status,0+btemp+1+pclath+cstack]
  2375                           ;nrf24_write_buf@reg stored from wreg
  2376     0606  00F5               	movwf	nrf24_write_buf@reg
  2377                           
  2378                           ;nrf24l01p.c: 115:     uint8_t i;;nrf24l01p.c: 117:     PORTBbits.RB3 = 0;
  2379     0607  1186               	bcf	6,3	;volatile
  2380                           
  2381                           ;nrf24l01p.c: 118:     spi_rw(reg);
  2382     0608  25F1               	fcall	_spi_rw
  2383                           
  2384                           ;nrf24l01p.c: 119:     for (i = 0; i < length; i++)
  2385     0609  01F6               	clrf	nrf24_write_buf@i
  2386     060A                     l1275:
  2387     060A  0874               	movf	nrf24_write_buf@length,w
  2388     060B  0276               	subwf	nrf24_write_buf@i,w
  2389     060C  1803               	btfsc	3,0
  2390     060D  2E19               	goto	l130
  2391                           
  2392                           ;nrf24l01p.c: 120:         spi_rw(*pBuf++);
  2393     060E  0873               	movf	nrf24_write_buf@pBuf+1,w
  2394     060F  00FF               	movwf	127
  2395     0610  0872               	movf	nrf24_write_buf@pBuf,w
  2396     0611  0084               	movwf	4
  2397     0612  2001               	fcall	stringtab
  2398     0613  25F1               	fcall	_spi_rw
  2399     0614  0AF2               	incf	nrf24_write_buf@pBuf,f
  2400     0615  1903               	skipnz
  2401     0616  0AF3               	incf	nrf24_write_buf@pBuf+1,f
  2402     0617  0AF6               	incf	nrf24_write_buf@i,f
  2403     0618  2E0A               	goto	l1275
  2404     0619                     l130:
  2405                           
  2406                           ;nrf24l01p.c: 121:     PORTBbits.RB3 = 1;
  2407     0619  1586               	bsf	6,3	;volatile
  2408     061A  0008               	return
  2409     061B                     __end_of_nrf24_write_buf:
  2410                           
  2411                           	psect	text18
  2412     05DD                     __ptext18:	
  2413 ;; *************** function _nrf24_powerUpRx *****************
  2414 ;; Defined at:
  2415 ;;		line 58 in file "nrf24l01p.c"
  2416 ;; Parameters:    Size  Location     Type
  2417 ;;		None
  2418 ;; Auto vars:     Size  Location     Type
  2419 ;;		None
  2420 ;; Return value:  Size  Location     Type
  2421 ;;                  1    wreg      void 
  2422 ;; Registers used:
  2423 ;;		wreg, status,2, status,0, pclath, cstack
  2424 ;; Tracked objects:
  2425 ;;		On entry : 300/0
  2426 ;;		On exit  : 0/0
  2427 ;;		Unchanged: 0/0
  2428 ;; Data sizes:     COMMON   BANK0   BANK1   BANK2
  2429 ;;      Params:         0       0       0       0
  2430 ;;      Locals:         0       0       0       0
  2431 ;;      Temps:          1       0       0       0
  2432 ;;      Totals:         1       0       0       0
  2433 ;;Total ram usage:        1 bytes
  2434 ;; Hardware stack levels used: 1
  2435 ;; Hardware stack levels required when called: 2
  2436 ;; This function calls:
  2437 ;;		_nrf24_write_reg
  2438 ;;		_spi_rw
  2439 ;; This function is called by:
  2440 ;;		_nrf24_init
  2441 ;; This function uses a non-reentrant model
  2442 ;;
  2443                           
  2444     05DD                     _nrf24_powerUpRx:	
  2445                           ;psect for function _nrf24_powerUpRx
  2446                           
  2447     05DD                     l1293:	
  2448                           ;incstack = 0
  2449                           ; Regs used in _nrf24_powerUpRx: [wreg+status,2+status,0+pclath+cstack]
  2450                           
  2451                           
  2452                           ;nrf24l01p.c: 59:     PORTBbits.RB3 = 0;
  2453     05DD  1186               	bcf	6,3	;volatile
  2454                           
  2455                           ;nrf24l01p.c: 60:     spi_rw(0b11100010);
  2456     05DE  30E2               	movlw	226
  2457     05DF  25F1               	fcall	_spi_rw
  2458                           
  2459                           ;nrf24l01p.c: 61:     PORTBbits.RB3 = 1;
  2460     05E0  1586               	bsf	6,3	;volatile
  2461                           
  2462                           ;nrf24l01p.c: 63:     nrf24_write_reg(0x07, (1 << 6) | (1 << 5) | (1 << 4));
  2463     05E1  3070               	movlw	112
  2464     05E2  00F2               	movwf	nrf24_write_reg@value
  2465     05E3  3007               	movlw	7
  2466     05E4  2547               	fcall	_nrf24_write_reg
  2467                           
  2468                           ;nrf24l01p.c: 65:     PORTAbits.RA2 = 0;
  2469     05E5  1105               	bcf	5,2	;volatile
  2470                           
  2471                           ;nrf24l01p.c: 66:     nrf24_write_reg(0x00, ((1 << 3) | (0 << 2)) | ((1 << 1) | (1 << 0)
      +                          ));
  2472     05E6  300B               	movlw	11
  2473     05E7  00F2               	movwf	nrf24_write_reg@value
  2474     05E8  3000               	movlw	0
  2475     05E9  2547               	fcall	_nrf24_write_reg
  2476                           
  2477                           ;nrf24l01p.c: 67:     PORTAbits.RA2 = 1;
  2478     05EA  1505               	bsf	5,2	;volatile
  2479                           
  2480                           ;nrf24l01p.c: 68:     _delay((unsigned long)((135)*(4000000/4000000.0)));
  2481     05EB  302C               	movlw	44
  2482     05EC  00F4               	movwf	??_nrf24_powerUpRx
  2483     05ED                     u637:
  2484     05ED  0BF4               	decfsz	??_nrf24_powerUpRx,f
  2485     05EE  2DED               	goto	u637
  2486     05EF  2DF0               	nop2
  2487     05F0  0008               	return
  2488     05F1                     __end_of_nrf24_powerUpRx:
  2489                           
  2490                           	psect	text19
  2491     0547                     __ptext19:	
  2492 ;; *************** function _nrf24_write_reg *****************
  2493 ;; Defined at:
  2494 ;;		line 91 in file "nrf24l01p.c"
  2495 ;; Parameters:    Size  Location     Type
  2496 ;;  reg             1    wreg     unsigned char 
  2497 ;;  value           1    2[COMMON] unsigned char 
  2498 ;; Auto vars:     Size  Location     Type
  2499 ;;  reg             1    3[COMMON] unsigned char 
  2500 ;; Return value:  Size  Location     Type
  2501 ;;                  1    wreg      void 
  2502 ;; Registers used:
  2503 ;;		wreg, status,2, status,0, pclath, cstack
  2504 ;; Tracked objects:
  2505 ;;		On entry : 300/0
  2506 ;;		On exit  : 300/0
  2507 ;;		Unchanged: 0/0
  2508 ;; Data sizes:     COMMON   BANK0   BANK1   BANK2
  2509 ;;      Params:         1       0       0       0
  2510 ;;      Locals:         1       0       0       0
  2511 ;;      Temps:          0       0       0       0
  2512 ;;      Totals:         2       0       0       0
  2513 ;;Total ram usage:        2 bytes
  2514 ;; Hardware stack levels used: 1
  2515 ;; Hardware stack levels required when called: 1
  2516 ;; This function calls:
  2517 ;;		_spi_rw
  2518 ;; This function is called by:
  2519 ;;		_nrf24_init
  2520 ;;		_nrf24_powerUpRx
  2521 ;;		_nrf24_powerUpTx
  2522 ;;		_nrf24_powerDown
  2523 ;; This function uses a non-reentrant model
  2524 ;;
  2525                           
  2526     0547                     _nrf24_write_reg:	
  2527                           ;psect for function _nrf24_write_reg
  2528                           
  2529                           
  2530                           ;incstack = 0
  2531                           ; Regs used in _nrf24_write_reg: [wreg+status,2+status,0+pclath+cstack]
  2532                           ;nrf24_write_reg@reg stored from wreg
  2533     0547  00F3               	movwf	nrf24_write_reg@reg
  2534                           
  2535                           ;nrf24l01p.c: 92:     PORTBbits.RB3 = 0;
  2536     0548  1186               	bcf	6,3	;volatile
  2537                           
  2538                           ;nrf24l01p.c: 93:     spi_rw(0b00100000 | reg);
  2539     0549  3820               	iorlw	32
  2540     054A  25F1               	fcall	_spi_rw
  2541                           
  2542                           ;nrf24l01p.c: 94:     spi_rw(value);
  2543     054B  0872               	movf	nrf24_write_reg@value,w
  2544     054C  25F1               	fcall	_spi_rw
  2545                           
  2546                           ;nrf24l01p.c: 95:     PORTBbits.RB3 = 1;
  2547     054D  1586               	bsf	6,3	;volatile
  2548     054E  0008               	return
  2549     054F                     __end_of_nrf24_write_reg:
  2550                           
  2551                           	psect	text20
  2552     05F1                     __ptext20:	
  2553 ;; *************** function _spi_rw *****************
  2554 ;; Defined at:
  2555 ;;		line 22 in file "spi.c"
  2556 ;; Parameters:    Size  Location     Type
  2557 ;;  value           1    wreg     unsigned char 
  2558 ;; Auto vars:     Size  Location     Type
  2559 ;;  value           1    0[COMMON] unsigned char 
  2560 ;;  i               1    1[COMMON] unsigned char 
  2561 ;; Return value:  Size  Location     Type
  2562 ;;                  1    wreg      unsigned char 
  2563 ;; Registers used:
  2564 ;;		wreg, status,2, status,0
  2565 ;; Tracked objects:
  2566 ;;		On entry : 300/0
  2567 ;;		On exit  : 300/0
  2568 ;;		Unchanged: 0/0
  2569 ;; Data sizes:     COMMON   BANK0   BANK1   BANK2
  2570 ;;      Params:         0       0       0       0
  2571 ;;      Locals:         2       0       0       0
  2572 ;;      Temps:          0       0       0       0
  2573 ;;      Totals:         2       0       0       0
  2574 ;;Total ram usage:        2 bytes
  2575 ;; Hardware stack levels used: 1
  2576 ;; This function calls:
  2577 ;;		Nothing
  2578 ;; This function is called by:
  2579 ;;		_nrf24_powerUpRx
  2580 ;;		_nrf24_write_reg
  2581 ;;		_nrf24_write_buf
  2582 ;;		_nrf24_send
  2583 ;;		_nrf24_getStatus
  2584 ;; This function uses a non-reentrant model
  2585 ;;
  2586                           
  2587     05F1                     _spi_rw:	
  2588                           ;psect for function _spi_rw
  2589                           
  2590                           
  2591                           ;incstack = 0
  2592                           ; Regs used in _spi_rw: [wreg+status,2+status,0]
  2593                           ;spi_rw@value stored from wreg
  2594     05F1  00F0               	movwf	spi_rw@value
  2595                           
  2596                           ;spi.c: 23:     uint8_t i;;spi.c: 24:     for (i = 0; i < 8; i++)
  2597     05F2  01F1               	clrf	spi_rw@i
  2598     05F3                     l190:
  2599                           
  2600                           ;spi.c: 25:     {;spi.c: 26:         if (value & 0x80) {
  2601     05F3  1FF0               	btfss	spi_rw@value,7
  2602     05F4  2DF7               	goto	l192
  2603                           
  2604                           ;spi.c: 27:             PORTAbits.RA1 = 1;
  2605     05F5  1485               	bsf	5,1	;volatile
  2606                           
  2607                           ;spi.c: 28:         } else {
  2608     05F6  2DF8               	goto	l193
  2609     05F7                     l192:
  2610                           
  2611                           ;spi.c: 29:             PORTAbits.RA1 = 0;
  2612     05F7  1085               	bcf	5,1	;volatile
  2613     05F8                     l193:	
  2614                           ;spi.c: 30:         }
  2615                           
  2616                           
  2617                           ;spi.c: 32:         value = (value << 1);
  2618     05F8  1003               	clrc
  2619     05F9  0DF0               	rlf	spi_rw@value,f
  2620                           
  2621                           ;spi.c: 33:         PORTBbits.RB4 = 1;
  2622     05FA  1606               	bsf	6,4	;volatile
  2623                           
  2624                           ;spi.c: 34:         value |= PORTBbits.RB0;
  2625     05FB  0806               	movf	6,w	;volatile
  2626     05FC  3901               	andlw	1
  2627     05FD  04F0               	iorwf	spi_rw@value,f
  2628                           
  2629                           ;spi.c: 35:         PORTBbits.RB4 = 0;
  2630     05FE  1206               	bcf	6,4	;volatile
  2631     05FF  3008               	movlw	8
  2632                           
  2633                           ;spi.c: 36:     }
  2634     0600  0AF1               	incf	spi_rw@i,f
  2635     0601  0271               	subwf	spi_rw@i,w
  2636     0602  1C03               	skipc
  2637     0603  2DF3               	goto	l190
  2638                           
  2639                           ;spi.c: 37:     return (value);
  2640     0604  0870               	movf	spi_rw@value,w
  2641     0605  0008               	return
  2642     0606                     __end_of_spi_rw:
  2643                           
  2644                           	psect	text21
  2645     0586                     __ptext21:	
  2646 ;; *************** function _init_uart *****************
  2647 ;; Defined at:
  2648 ;;		line 13 in file "usart.c"
  2649 ;; Parameters:    Size  Location     Type
  2650 ;;		None
  2651 ;; Auto vars:     Size  Location     Type
  2652 ;;		None
  2653 ;; Return value:  Size  Location     Type
  2654 ;;                  1    wreg      void 
  2655 ;; Registers used:
  2656 ;;		None
  2657 ;; Tracked objects:
  2658 ;;		On entry : 0/0
  2659 ;;		On exit  : 300/100
  2660 ;;		Unchanged: 0/0
  2661 ;; Data sizes:     COMMON   BANK0   BANK1   BANK2
  2662 ;;      Params:         0       0       0       0
  2663 ;;      Locals:         0       0       0       0
  2664 ;;      Temps:          0       0       0       0
  2665 ;;      Totals:         0       0       0       0
  2666 ;;Total ram usage:        0 bytes
  2667 ;; Hardware stack levels used: 1
  2668 ;; This function calls:
  2669 ;;		Nothing
  2670 ;; This function is called by:
  2671 ;;		_init_Cpu
  2672 ;; This function uses a non-reentrant model
  2673 ;;
  2674                           
  2675     0586                     _init_uart:	
  2676                           ;psect for function _init_uart
  2677                           
  2678     0586                     l1399:	
  2679                           ;incstack = 0
  2680                           ; Regs used in _init_uart: []
  2681                           
  2682                           
  2683                           ;usart.c: 15:     TRISBbits.TRISB1 = 1;
  2684     0586  1683               	bsf	3,5	;RP0=1, select bank1
  2685     0587  1303               	bcf	3,6	;RP1=0, select bank1
  2686     0588  1486               	bsf	6,1	;volatile
  2687                           
  2688                           ;usart.c: 16:     TRISBbits.TRISB2 = 1;
  2689     0589  1506               	bsf	6,2	;volatile
  2690                           
  2691                           ;usart.c: 17:     TXSTAbits.BRGH = 0;
  2692     058A  1118               	bcf	24,2	;volatile
  2693                           
  2694                           ;usart.c: 18:     TXSTAbits.SYNC = 0;
  2695     058B  1218               	bcf	24,4	;volatile
  2696                           
  2697                           ;usart.c: 19:     TXSTAbits.TXEN = 1;
  2698     058C  1698               	bsf	24,5	;volatile
  2699                           
  2700                           ;usart.c: 20:     TXSTAbits.CSRC = 1;
  2701     058D  1798               	bsf	24,7	;volatile
  2702                           
  2703                           ;usart.c: 21:     RCSTAbits.CREN = 1;
  2704     058E  1283               	bcf	3,5	;RP0=0, select bank0
  2705     058F  1618               	bsf	24,4	;volatile
  2706                           
  2707                           ;usart.c: 22:     RCSTAbits.SPEN = 1;
  2708     0590  1798               	bsf	24,7	;volatile
  2709                           
  2710                           ;usart.c: 30:     SPBRG = 12;
  2711     0591  300C               	movlw	12
  2712     0592  1683               	bsf	3,5	;RP0=1, select bank1
  2713     0593  0099               	movwf	25	;volatile
  2714     0594  0008               	return
  2715     0595                     __end_of_init_uart:
  2716                           
  2717                           	psect	text22
  2718     056A                     __ptext22:	
  2719 ;; *************** function _init_ds18b20 *****************
  2720 ;; Defined at:
  2721 ;;		line 11 in file "ds18b20.c"
  2722 ;; Parameters:    Size  Location     Type
  2723 ;;		None
  2724 ;; Auto vars:     Size  Location     Type
  2725 ;;		None
  2726 ;; Return value:  Size  Location     Type
  2727 ;;                  1    wreg      void 
  2728 ;; Registers used:
  2729 ;;		wreg, status,2, status,0, pclath, cstack
  2730 ;; Tracked objects:
  2731 ;;		On entry : 300/0
  2732 ;;		On exit  : 0/0
  2733 ;;		Unchanged: 0/0
  2734 ;; Data sizes:     COMMON   BANK0   BANK1   BANK2
  2735 ;;      Params:         0       0       0       0
  2736 ;;      Locals:         0       0       0       0
  2737 ;;      Temps:          0       0       0       0
  2738 ;;      Totals:         0       0       0       0
  2739 ;;Total ram usage:        0 bytes
  2740 ;; Hardware stack levels used: 1
  2741 ;; Hardware stack levels required when called: 2
  2742 ;; This function calls:
  2743 ;;		_ow_reset
  2744 ;;		_write_byte
  2745 ;; This function is called by:
  2746 ;;		_init_Cpu
  2747 ;; This function uses a non-reentrant model
  2748 ;;
  2749                           
  2750     056A                     _init_ds18b20:	
  2751                           ;psect for function _init_ds18b20
  2752                           
  2753                           
  2754                           ;ds18b20.c: 14:     if (!ow_reset())
  2755                           
  2756                           ;incstack = 0
  2757                           ; Regs used in _init_ds18b20: [wreg+status,2+status,0+pclath+cstack]
  2758     056A  261B               	fcall	_ow_reset
  2759     056B  3A00               	xorlw	0
  2760     056C  1D03               	skipz
  2761     056D  0008               	return
  2762                           
  2763                           ;ds18b20.c: 15:     {;ds18b20.c: 17:         write_byte(0xCC);
  2764     056E  30CC               	movlw	204
  2765     056F  2667               	fcall	_write_byte
  2766                           
  2767                           ;ds18b20.c: 18:         write_byte(0x4E);
  2768     0570  304E               	movlw	78
  2769     0571  2667               	fcall	_write_byte
  2770                           
  2771                           ;ds18b20.c: 19:         write_byte(0x00);
  2772     0572  3000               	movlw	0
  2773     0573  2667               	fcall	_write_byte
  2774                           
  2775                           ;ds18b20.c: 20:         write_byte(0x00);
  2776     0574  3000               	movlw	0
  2777     0575  2667               	fcall	_write_byte
  2778                           
  2779                           ;ds18b20.c: 21:         write_byte(0x7F);
  2780     0576  307F               	movlw	127
  2781     0577  2E67               	ljmp	_write_byte
  2782     0578                     __end_of_init_ds18b20:
  2783                           
  2784                           	psect	text23
  2785     0667                     __ptext23:	
  2786 ;; *************** function _write_byte *****************
  2787 ;; Defined at:
  2788 ;;		line 66 in file "onewire.c"
  2789 ;; Parameters:    Size  Location     Type
  2790 ;;  val             1    wreg     unsigned char 
  2791 ;; Auto vars:     Size  Location     Type
  2792 ;;  val             1    3[COMMON] unsigned char 
  2793 ;;  i               1    5[COMMON] unsigned char 
  2794 ;;  temp            1    4[COMMON] unsigned char 
  2795 ;; Return value:  Size  Location     Type
  2796 ;;                  1    wreg      void 
  2797 ;; Registers used:
  2798 ;;		wreg, status,2, status,0, pclath, cstack
  2799 ;; Tracked objects:
  2800 ;;		On entry : 0/0
  2801 ;;		On exit  : 0/0
  2802 ;;		Unchanged: 0/0
  2803 ;; Data sizes:     COMMON   BANK0   BANK1   BANK2
  2804 ;;      Params:         0       0       0       0
  2805 ;;      Locals:         3       0       0       0
  2806 ;;      Temps:          1       0       0       0
  2807 ;;      Totals:         4       0       0       0
  2808 ;;Total ram usage:        4 bytes
  2809 ;; Hardware stack levels used: 1
  2810 ;; Hardware stack levels required when called: 1
  2811 ;; This function calls:
  2812 ;;		_write_bit
  2813 ;; This function is called by:
  2814 ;;		_init_ds18b20
  2815 ;;		_readTemp_Single
  2816 ;; This function uses a non-reentrant model
  2817 ;;
  2818                           
  2819     0667                     _write_byte:	
  2820                           ;psect for function _write_byte
  2821                           
  2822                           
  2823                           ;incstack = 0
  2824                           ; Regs used in _write_byte: [wreg+status,2+status,0+pclath+cstack]
  2825                           ;write_byte@val stored from wreg
  2826     0667  00F3               	movwf	write_byte@val
  2827                           
  2828                           ;onewire.c: 66: void write_byte(uint8_t val);onewire.c: 67: {;onewire.c: 68:    uint8_t 
      +                          i;;onewire.c: 69:    uint8_t temp;;onewire.c: 71:    for (i=0;i<8;i++)
  2829     0668  01F5               	clrf	write_byte@i
  2830     0669                     l1341:
  2831                           
  2832                           ;onewire.c: 72:    {;onewire.c: 73:       temp = val >> i;
  2833     0669  0873               	movf	write_byte@val,w
  2834     066A  00F2               	movwf	??_write_byte
  2835     066B  0A75               	incf	write_byte@i,w
  2836     066C  2E6F               	goto	u314
  2837     066D                     u315:
  2838     066D  1003               	clrc
  2839     066E  0CF2               	rrf	??_write_byte,f
  2840     066F                     u314:
  2841     066F  3EFF               	addlw	-1
  2842     0670  1D03               	skipz
  2843     0671  2E6D               	goto	u315
  2844     0672  0872               	movf	??_write_byte,w
  2845     0673  00F4               	movwf	write_byte@temp
  2846                           
  2847                           ;onewire.c: 74:       temp &= 0x01;
  2848     0674  3001               	movlw	1
  2849     0675  05F4               	andwf	write_byte@temp,f
  2850                           
  2851                           ;onewire.c: 75:       write_bit(temp);
  2852     0676  0874               	movf	write_byte@temp,w
  2853     0677  264D               	fcall	_write_bit
  2854     0678  3008               	movlw	8
  2855                           
  2856                           ;onewire.c: 76:    }
  2857     0679  0AF5               	incf	write_byte@i,f
  2858     067A  0275               	subwf	write_byte@i,w
  2859     067B  1C03               	skipc
  2860     067C  2E69               	goto	l1341
  2861                           
  2862                           ;onewire.c: 78:    _delay((unsigned long)((105)*(4000000/4000000.0)));
  2863     067D  3022               	movlw	34
  2864     067E  00F2               	movwf	??_write_byte
  2865     067F                     u647:
  2866     067F  0BF2               	decfsz	??_write_byte,f
  2867     0680  2E7F               	goto	u647
  2868     0681  2E82               	nop2
  2869     0682  0008               	return
  2870     0683                     __end_of_write_byte:
  2871                           
  2872                           	psect	text24
  2873     064D                     __ptext24:	
  2874 ;; *************** function _write_bit *****************
  2875 ;; Defined at:
  2876 ;;		line 34 in file "onewire.c"
  2877 ;; Parameters:    Size  Location     Type
  2878 ;;  bitval          1    wreg     unsigned char 
  2879 ;; Auto vars:     Size  Location     Type
  2880 ;;  bitval          1    1[COMMON] unsigned char 
  2881 ;; Return value:  Size  Location     Type
  2882 ;;                  1    wreg      void 
  2883 ;; Registers used:
  2884 ;;		wreg, status,2, status,0
  2885 ;; Tracked objects:
  2886 ;;		On entry : 0/0
  2887 ;;		On exit  : 300/100
  2888 ;;		Unchanged: 0/0
  2889 ;; Data sizes:     COMMON   BANK0   BANK1   BANK2
  2890 ;;      Params:         0       0       0       0
  2891 ;;      Locals:         1       0       0       0
  2892 ;;      Temps:          1       0       0       0
  2893 ;;      Totals:         2       0       0       0
  2894 ;;Total ram usage:        2 bytes
  2895 ;; Hardware stack levels used: 1
  2896 ;; This function calls:
  2897 ;;		Nothing
  2898 ;; This function is called by:
  2899 ;;		_write_byte
  2900 ;; This function uses a non-reentrant model
  2901 ;;
  2902                           
  2903     064D                     _write_bit:	
  2904                           ;psect for function _write_bit
  2905                           
  2906                           
  2907                           ;incstack = 0
  2908                           ; Regs used in _write_bit: [wreg+status,2+status,0]
  2909                           ;write_bit@bitval stored from wreg
  2910     064D  00F1               	movwf	write_bit@bitval
  2911                           
  2912                           ;onewire.c: 34: void write_bit(uint8_t bitval);onewire.c: 35: {;onewire.c: 36:     PORTA
      +                          bits.RA3 = 0;
  2913                           
  2914                           ;onewire.c: 37:     TRISAbits.TRISA3 = 0;
  2915     064E  2661               	fcall	PL6	;call to abstracted procedure
  2916                           
  2917                           ;onewire.c: 38:    if(bitval == 1) {
  2918     064F  0371               	decf	write_bit@bitval,w
  2919     0650  1D03               	btfss	3,2
  2920     0651  2E54               	goto	l1283
  2921                           
  2922                           ;onewire.c: 39:       _delay((unsigned long)((2)*(4000000/4000000.0)));
  2923     0652  2E53               	nop2	;2 cycle nop
  2924                           
  2925                           ;onewire.c: 40:       PORTAbits.RA3 = 1;
  2926                           
  2927                           ;onewire.c: 41:       TRISAbits.TRISA3 = 1;
  2928     0653  265B               	fcall	PL4	;call to abstracted procedure
  2929     0654                     l1283:
  2930                           
  2931                           ;onewire.c: 43:    _delay((unsigned long)((105)*(4000000/4000000.0)));
  2932     0654  3022               	movlw	34
  2933     0655  00F0               	movwf	??_write_bit
  2934     0656                     u657:
  2935     0656  0BF0               	decfsz	??_write_bit,f
  2936     0657  2E56               	goto	u657
  2937     0658  2E59               	nop2
  2938                           
  2939                           ;onewire.c: 44:       PORTAbits.RA3 = 1;
  2940                           
  2941                           ;onewire.c: 45:       TRISAbits.TRISA3 = 1;
  2942     0659  265B               	fcall	PL4	;call to abstracted procedure
  2943     065A  0008               	return
  2944     065B                     __end_of_write_bit:
  2945     065B                     PL4:
  2946     065B  1283               	bcf	3,5	;RP0=0, select bank0
  2947     065C  1303               	bcf	3,6	;RP1=0, select bank0
  2948     065D  1585               	bsf	5,3	;volatile
  2949     065E  1683               	bsf	3,5	;RP0=1, select bank1
  2950     065F  1585               	bsf	5,3	;volatile
  2951     0660  0008               	return
  2952     0661                     __end_ofPL4:
  2953     0661                     PL6:
  2954     0661  1283               	bcf	3,5	;RP0=0, select bank0
  2955     0662  1303               	bcf	3,6	;RP1=0, select bank0
  2956     0663  1185               	bcf	5,3	;volatile
  2957     0664  1683               	bsf	3,5	;RP0=1, select bank1
  2958     0665  1185               	bcf	5,3	;volatile
  2959     0666  0008               	return
  2960     0667                     __end_ofPL6:
  2961                           
  2962                           	psect	text25
  2963     061B                     __ptext25:	
  2964 ;; *************** function _ow_reset *****************
  2965 ;; Defined at:
  2966 ;;		line 5 in file "onewire.c"
  2967 ;; Parameters:    Size  Location     Type
  2968 ;;		None
  2969 ;; Auto vars:     Size  Location     Type
  2970 ;;  presence        1    1[COMMON] unsigned char 
  2971 ;; Return value:  Size  Location     Type
  2972 ;;                  1    wreg      unsigned char 
  2973 ;; Registers used:
  2974 ;;		wreg, status,2, status,0
  2975 ;; Tracked objects:
  2976 ;;		On entry : 0/0
  2977 ;;		On exit  : 0/0
  2978 ;;		Unchanged: 0/0
  2979 ;; Data sizes:     COMMON   BANK0   BANK1   BANK2
  2980 ;;      Params:         0       0       0       0
  2981 ;;      Locals:         1       0       0       0
  2982 ;;      Temps:          1       0       0       0
  2983 ;;      Totals:         2       0       0       0
  2984 ;;Total ram usage:        2 bytes
  2985 ;; Hardware stack levels used: 1
  2986 ;; This function calls:
  2987 ;;		Nothing
  2988 ;; This function is called by:
  2989 ;;		_init_ds18b20
  2990 ;;		_readTemp_Single
  2991 ;; This function uses a non-reentrant model
  2992 ;;
  2993                           
  2994     061B                     _ow_reset:	
  2995                           ;psect for function _ow_reset
  2996                           
  2997                           
  2998                           ;onewire.c: 7:    uint8_t presence;;onewire.c: 8:     PORTAbits.RA3 = 0;
  2999                           
  3000                           ;incstack = 0
  3001                           ; Regs used in _ow_reset: [wreg+status,2+status,0]
  3002                           
  3003                           ;onewire.c: 9:     TRISAbits.TRISA3 = 0;
  3004     061B  2661               	fcall	PL6	;call to abstracted procedure
  3005                           
  3006                           ;onewire.c: 10:     _delay((unsigned long)((500)*(4000000/4000000.0)));
  3007     061C  30A6               	movlw	166
  3008     061D  00F0               	movwf	??_ow_reset
  3009     061E                     u667:
  3010     061E  0BF0               	decfsz	??_ow_reset,f
  3011     061F  2E1E               	goto	u667
  3012     0620  0000               	nop
  3013                           
  3014                           ;onewire.c: 11:     PORTAbits.RA3 = 1;
  3015                           
  3016                           ;onewire.c: 12:     TRISAbits.TRISA3 = 1;
  3017     0621  265B               	fcall	PL4	;call to abstracted procedure
  3018                           
  3019                           ;onewire.c: 13:    _delay((unsigned long)((100)*(4000000/4000000.0)));
  3020     0622  3021               	movlw	33
  3021     0623  00F0               	movwf	??_ow_reset
  3022     0624                     u677:
  3023     0624  0BF0               	decfsz	??_ow_reset,f
  3024     0625  2E24               	goto	u677
  3025                           
  3026                           ;onewire.c: 14:    presence = PORTAbits.RA3;
  3027     0626  1283               	bcf	3,5	;RP0=0, select bank0
  3028     0627  1303               	bcf	3,6	;RP1=0, select bank0
  3029     0628  0C05               	rrf	5,w	;volatile
  3030     0629  00F0               	movwf	??_ow_reset
  3031     062A  0CF0               	rrf	??_ow_reset,f
  3032     062B  0C70               	rrf	??_ow_reset,w
  3033     062C  3901               	andlw	1
  3034     062D  00F1               	movwf	ow_reset@presence
  3035                           
  3036                           ;onewire.c: 15:    _delay((unsigned long)((424)*(4000000/4000000.0)));
  3037     062E  308D               	movlw	141
  3038     062F  00F0               	movwf	??_ow_reset
  3039     0630                     u687:
  3040     0630  0BF0               	decfsz	??_ow_reset,f
  3041     0631  2E30               	goto	u687
  3042                           
  3043                           ;onewire.c: 16:    return(presence);
  3044     0632  0871               	movf	ow_reset@presence,w
  3045     0633  0008               	return
  3046     0634                     __end_of_ow_reset:
  3047     0000                     ___latbits      equ	0
  3048     007E                     btemp           set	126	;btemp
  3049     007E                     wtemp0          set	126
  3050                           
  3051                           	psect	idloc
  3052                           
  3053                           ;Config register IDLOC0 @ 0x2000
  3054                           ;	unspecified, using default values
  3055     2000                     	org	8192
  3056     2000  3FFF               	dw	16383
  3057                           
  3058                           ;Config register IDLOC1 @ 0x2001
  3059                           ;	unspecified, using default values
  3060     2001                     	org	8193
  3061     2001  3FFF               	dw	16383
  3062                           
  3063                           ;Config register IDLOC2 @ 0x2002
  3064                           ;	unspecified, using default values
  3065     2002                     	org	8194
  3066     2002  3FFF               	dw	16383
  3067                           
  3068                           ;Config register IDLOC3 @ 0x2003
  3069                           ;	unspecified, using default values
  3070     2003                     	org	8195
  3071     2003  3FFF               	dw	16383
  3072                           
  3073                           	psect	config
  3074                           
  3075                           ;Config register CONFIG @ 0x2007
  3076                           ;	Oscillator Selection bits
  3077                           ;	FOSC = INTOSCIO, INTOSC oscillator: I/O function on RA6/OSC2/CLKOUT pin, I/O function 
      +                          on RA7/OSC1/CLKIN
  3078                           ;	Watchdog Timer Enable bit
  3079                           ;	WDTE = ON, WDT enabled
  3080                           ;	Power-up Timer Enable bit
  3081                           ;	PWRTE = ON, PWRT enabled
  3082                           ;	RA5/MCLR/VPP Pin Function Select bit
  3083                           ;	MCLRE = ON, RA5/MCLR/VPP pin function is MCLR
  3084                           ;	Brown-out Detect Enable bit
  3085                           ;	BOREN = OFF, BOD disabled
  3086                           ;	Low-Voltage Programming Enable bit
  3087                           ;	LVP = OFF, RB4/PGM pin has digital I/O function, HV on MCLR must be used for programmi
      +                          ng
  3088                           ;	Data EE Memory Code Protection bit
  3089                           ;	CPD = OFF, Data memory code protection off
  3090                           ;	Flash Program Memory Code Protection bit
  3091                           ;	CP = OFF, Code protection off
  3092     2007                     	org	8199
  3093     2007  3F34               	dw	16180

Data Sizes:
    Strings     0
    Constant    26
    Data        0
    BSS         22
    Persistent  0
    Stack       0

Auto Spaces:
    Space          Size  Autos    Used
    COMMON           14     14      14
    BANK0            80      4      26
    BANK1            80      0       0
    BANK2            48      0       0

Pointer List with Targets:

    nrf24_rx_address@adr	PTR const unsigned char  size(1) Largest target is 5
		 -> nrf_rx_address(CODE[5]), 

    nrf24_send@value	PTR unsigned char  size(1) Largest target is 5
		 -> data_array(BANK0[5]), 

    nrf24_tx_address@adr	PTR const unsigned char  size(1) Largest target is 5
		 -> nrf_tx_address(CODE[5]), 

    nrf24_write_buf@pBuf	PTR const unsigned char  size(2) Largest target is 5
		 -> data_array(BANK0[5]), nrf_rx_address(CODE[5]), nrf_tx_address(CODE[5]), 

    readTemp_Single@buf	PTR unsigned short  size(1) Largest target is 2
		 -> temperature(BANK0[2]), 

    readTemp_Single@minus	PTR unsigned char  size(1) Largest target is 1
		 -> minus(BANK0[1]), 

    reliable_send@data	PTR unsigned char  size(1) Largest target is 5
		 -> data_array(BANK0[5]), 


Critical Paths under _main in COMMON

    _main->_reliable_send
    _reliable_send->_nrf24_send
    _nrf24_send->_nrf24_write_buf
    _nrf24_powerUpTx->_nrf24_write_reg
    _nrf24_messageStatus->_nrf24_getStatus
    _nrf24_isSending->_nrf24_getStatus
    _nrf24_getStatus->_spi_rw
    _readTemp_Single->___wmul
    _readTemp_Single->_write_byte
    _read_byte->_read_bit
    _nrf24_powerDown->_nrf24_write_reg
    _init_Cpu->_nrf24_init
    _nrf24_init->_nrf24_rx_address
    _nrf24_init->_nrf24_tx_address
    _nrf24_tx_address->_nrf24_write_buf
    _nrf24_rx_address->_nrf24_write_buf
    _nrf24_write_buf->_spi_rw
    _nrf24_powerUpRx->_nrf24_write_reg
    _nrf24_write_reg->_spi_rw
    _init_ds18b20->_write_byte
    _write_byte->_write_bit

Critical Paths under _main in BANK0

    _main->_readTemp_Single

Critical Paths under _main in BANK1

    None.

Critical Paths under _main in BANK2

    None.

Call Graph Tables:

 ---------------------------------------------------------------------------------
 (Depth) Function   	        Calls       Base Space   Used Autos Params    Refs
 ---------------------------------------------------------------------------------
 (0) _main                                                 3     3      0    4039
                                             12 COMMON     2     2      0
                           _init_Cpu
                         _nrf24_init
                    _nrf24_powerDown
                    _readTemp_Single
                      _reliable_send
                           _spi_init
 ---------------------------------------------------------------------------------
 (1) _reliable_send                                        4     3      1     921
                                              8 COMMON     4     3      1
                    _nrf24_isSending
                _nrf24_messageStatus
                         _nrf24_send
 ---------------------------------------------------------------------------------
 (2) _nrf24_send                                           1     0      1     522
                                              7 COMMON     1     0      1
                    _nrf24_powerUpTx
                    _nrf24_write_buf
                             _spi_rw
 ---------------------------------------------------------------------------------
 (3) _nrf24_powerUpTx                                      1     1      0     177
                                              4 COMMON     1     1      0
                    _nrf24_write_reg
 ---------------------------------------------------------------------------------
 (2) _nrf24_messageStatus                                  1     1      0     176
                                              3 COMMON     1     1      0
                    _nrf24_getStatus
 ---------------------------------------------------------------------------------
 (2) _nrf24_isSending                                      1     1      0     154
                                              3 COMMON     1     1      0
                    _nrf24_getStatus
 ---------------------------------------------------------------------------------
 (3) _nrf24_getStatus                                      1     1      0     131
                                              2 COMMON     1     1      0
                             _spi_rw
 ---------------------------------------------------------------------------------
 (1) _readTemp_Single                                     10     8      2     702
                                              6 COMMON     5     3      2
                                              0 BANK0      4     4      0
                             ___wmul
                           _ow_reset
                          _read_byte
                         _write_byte
 ---------------------------------------------------------------------------------
 (2) _read_byte                                            3     3      0      92
                                              1 COMMON     3     3      0
                           _read_bit
 ---------------------------------------------------------------------------------
 (3) _read_bit                                             1     1      0       0
                                              0 COMMON     1     1      0
 ---------------------------------------------------------------------------------
 (2) ___wmul                                               6     2      4      94
                                              0 COMMON     6     2      4
 ---------------------------------------------------------------------------------
 (1) _nrf24_powerDown                                      0     0      0     177
                    _nrf24_write_reg
 ---------------------------------------------------------------------------------
 (1) _init_Cpu                                             0     0      0    1206
                       _init_ds18b20
                          _init_uart
                         _nrf24_init
                           _spi_init
 ---------------------------------------------------------------------------------
 (1) _spi_init                                             0     0      0       0
 ---------------------------------------------------------------------------------
 (1) _nrf24_init                                           2     1      1    1033
                                              8 COMMON     2     1      1
                    _nrf24_powerUpRx
                   _nrf24_rx_address
                   _nrf24_tx_address
                    _nrf24_write_reg
 ---------------------------------------------------------------------------------
 (2) _nrf24_tx_address                                     1     0      1     259
                                              7 COMMON     1     0      1
                    _nrf24_write_buf
 ---------------------------------------------------------------------------------
 (2) _nrf24_rx_address                                     1     0      1     237
                                              7 COMMON     1     0      1
                    _nrf24_write_buf
 ---------------------------------------------------------------------------------
 (3) _nrf24_write_buf                                      5     2      3     214
                                              2 COMMON     5     2      3
                             _spi_rw
 ---------------------------------------------------------------------------------
 (2) _nrf24_powerUpRx                                      1     1      0     285
                                              4 COMMON     1     1      0
                    _nrf24_write_reg
                             _spi_rw
 ---------------------------------------------------------------------------------
 (4) _nrf24_write_reg                                      2     1      1     177
                                              2 COMMON     2     1      1
                             _spi_rw
 ---------------------------------------------------------------------------------
 (3) _spi_rw                                               2     2      0     108
                                              0 COMMON     2     2      0
 ---------------------------------------------------------------------------------
 (2) _init_uart                                            0     0      0       0
 ---------------------------------------------------------------------------------
 (2) _init_ds18b20                                         0     0      0     173
                           _ow_reset
                         _write_byte
 ---------------------------------------------------------------------------------
 (2) _write_byte                                           4     4      0     150
                                              2 COMMON     4     4      0
                          _write_bit
 ---------------------------------------------------------------------------------
 (3) _write_bit                                            2     2      0      29
                                              0 COMMON     2     2      0
 ---------------------------------------------------------------------------------
 (2) _ow_reset                                             2     2      0      23
                                              0 COMMON     2     2      0
 ---------------------------------------------------------------------------------
 Estimated maximum stack depth 4
 ---------------------------------------------------------------------------------

 Call Graph Graphs:

 _main (ROOT)
   _init_Cpu
     _init_ds18b20
       _ow_reset
       _write_byte
         _write_bit
     _init_uart
     _nrf24_init
       _nrf24_powerUpRx
         _nrf24_write_reg
           _spi_rw
         _spi_rw
       _nrf24_rx_address
         _nrf24_write_buf
           _spi_rw
       _nrf24_tx_address
         _nrf24_write_buf
       _nrf24_write_reg
     _spi_init
   _nrf24_init
   _nrf24_powerDown
     _nrf24_write_reg
   _readTemp_Single
     ___wmul
     _ow_reset
     _read_byte
       _read_bit
     _write_byte
   _reliable_send
     _nrf24_isSending
       _nrf24_getStatus
         _spi_rw
     _nrf24_messageStatus
       _nrf24_getStatus
     _nrf24_send
       _nrf24_powerUpTx
         _nrf24_write_reg
       _nrf24_write_buf
       _spi_rw
   _spi_init

Address spaces:
Name               Size   Autos  Total    Usage
BITCOMMON           14      0       0      0.0%
BITBANK0            80      0       0      0.0%
BITBANK1            80      0       0      0.0%
BITBANK2            48      0       0      0.0%
COMMON              14     14      14    100.0%
BANK0               80      4      26     32.5%
BANK1               80      0       0      0.0%
BANK2               48      0       0      0.0%
STACK                0      0       0      0.0%
DATA                 0      0      40      0.0%


Microchip Technology PIC Macro Assembler V3.00 build 20241204225717 
Symbol Table                                                                                   Sun Nov 02 12:41:52 2025

                          pc 0002                           PL2 059D                           PL4 065B  
                         PL6 0661                           l63 07F0                           l57 076D  
                         l58 0784         nrf24_write_reg@value 0072                           fsr 0004  
        ___wmul@multiplicand 0072                          l130 0619                          l190 05F3  
                        l192 05F7                          l193 05F8                          u314 066F  
                        u315 066D                          u607 0582                          u384 068F  
                        u385 068D                          u617 070E                          u537 0794  
                        u627 0696                          u547 07A5                          u637 05ED  
                        u557 07B6                          u647 067F                          u567 07C2  
                        u657 0656                          u577 07CD                          u667 061E  
                        u587 07D9                          u677 0624                          u597 06B4  
                        u687 0630                          fsr0 0004                          indf 0000  
    __end_of_nrf24_powerDown 053A      __end_of_nrf24_powerUpRx 05F1      __end_of_nrf24_powerUpTx 0586  
                       l1341 0669                         l1283 0654                         l1275 060A  
                       l1451 0685                         l1293 05DD                         l1541 0739  
                       l1455 0694                         l1527 071D                         l1465 0636  
                       l1643 07E3                         l1469 063E                         l1565 06A1  
                       l1399 0586                         l1583 06B9                         l1567 06A4  
                       l1595 0765             ow_reset@presence 0071                         _main 0765  
                       _temp 002D                         btemp 007E                write_byte@val 0073  
                       start 0000      __end_of_nrf24_write_buf 061B      __end_of_nrf24_write_reg 054F  
   __end_of_nrf24_rx_address 0535        nrf24_isSending@status 0073     __end_of_nrf24_tx_address 059D  
                      ?_main 0070                        _CMCON 001F        __end_of_reliable_send 06BF  
                      _SPBRG 0099                        _PORTA 0005                        _PORTB 0006  
                      _TRISA 0085                        _TRISB 0086             ?_nrf24_getStatus 0070  
                      _fract 0011                        _count 002C                        _minus 0035  
           ?_nrf24_isSending 0070               write_byte@temp 0074                        pclath 000A  
                      status 0003                        wtemp0 007E              write_bit@bitval 0071  
            __initialization 07F9                 __end_of_main 07F9          _nrf24_messageStatus 0540  
            _readTemp_Single 06FB                       ??_main 007C                ?_init_ds18b20 0070  
           ?_nrf24_powerDown 0070             ?_nrf24_powerUpRx 0070             ?_nrf24_powerUpTx 0070  
       ?_nrf24_messageStatus 0070         nrf24_init@pay_length 0078             ?_nrf24_write_buf 0072  
           ?_nrf24_write_reg 0072                       ___wmul 0634             __end_of_init_Cpu 05CA  
           __end_of_read_bit 05B7                       _spi_rw 05F1            reliable_send@data 0078  
             ??_init_ds18b20 0076             __end_of_ow_reset 0634             __end_of_spi_init 056A  
      ??_nrf24_messageStatus 0073      __end_of__initialization 07FE            nrf24_init@channel 0079  
    __end_of_readTemp_Single 0765               __pcstackCOMMON 0070                __end_of_fract 0021  
                 __end_ofPL2 05A5                   __end_ofPL4 0661                   __end_ofPL6 0667  
             _nrf_rx_address 0021               _OPTION_REGbits 0081               _nrf_tx_address 0026  
                 __pbssBANK0 0020                   _data_array 002E                   __pmaintext 0765  
          ?_nrf24_rx_address 0077                      ?___wmul 0070           ??_nrf24_rx_address 0078  
     __end_of_nrf_rx_address 0026                      ?_spi_rw 0070            ?_nrf24_tx_address 0077  
         ??_nrf24_tx_address 0078       __end_of_nrf_tx_address 002B                   _nrf24_init 06BF  
                 _nrf24_send 05CA                   __stringtab 0001                    ?_init_Cpu 0070  
                  ?_read_bit 0070         __end_of_init_ds18b20 0578             ?_readTemp_Single 0076  
                  ?_ow_reset 0070                    ?_spi_init 0070                   _error_send 0029  
                    __ptext1 06A0                      __ptext2 05CA                      __ptext3 0578  
                    __ptext4 0540                      __ptext5 053A                      __ptext6 054F  
                    __ptext7 06FB                      __ptext8 0683                      __ptext9 05A5  
          __end_of_init_uart 0595                      _pay_len 002B            __end_of_read_byte 06A0  
                    _scratch 0020                      clrloop0 0558         end_of_initialization 07FE  
                 ??_init_Cpu 007A                   ??_read_bit 0070                    _RCSTAbits 0018  
                 ??_ow_reset 0070                      spi_rw@i 0071                   ??_spi_init 0070  
               read_byte@val 0072                    _PORTAbits 0005          nrf24_write_buf@pBuf 0072  
                  _PORTBbits 0006            __end_of_write_bit 065B                    _TRISAbits 0085  
                  _TRISBbits 0086                  ?_nrf24_init 0078                  ?_nrf24_send 0077  
                  _TXSTAbits 0098                  spi_rw@value 0070               __end_of___wmul 064D  
                 _write_byte 0667  nrf24_messageStatus@r_status 0073  __end_of_nrf24_messageStatus 0547  
             __end_of_spi_rw 0606                _reliable_send 06A0          start_initialization 07F9  
        nrf24_rx_address@adr 0077            ??_nrf24_getStatus 0072                     ??___wmul 0074  
          ??_nrf24_isSending 0073                     ??_spi_rw 0070                   read_byte@i 0073  
             ?_reliable_send 0078                 _init_ds18b20 056A                    ___latbits 0000  
              __pcstackBANK0 0036         readTemp_Single@minus 0077            ??_nrf24_powerDown 0074  
          ??_nrf24_powerUpRx 0074            ??_nrf24_powerUpTx 0074                  ?_write_byte 0070  
                  __pstrings 0001            ??_nrf24_write_buf 0075            ??_nrf24_write_reg 0073  
                  _init_uart 0586                    _read_byte 0683               ___wmul@product 0074  
                  clear_ram0 0557             readTemp_Single@i 0037           nrf24_write_buf@reg 0075  
            ??_reliable_send 0079           nrf24_write_reg@reg 0073                  __stringbase 0010  
          ___wmul@multiplier 0070                  write_byte@i 0075                 ??_nrf24_init 0079  
               ??_nrf24_send 0078                    _write_bit 064D                   ?_init_uart 0070  
                 ?_read_byte 0070               reliable_send@i 007B           __end_of_nrf24_init 06FB  
         __end_of_nrf24_send 05DD           __end_of__stringtab 0011          readTemp_Single@temp 0038  
           _nrf24_rx_address 0531                     __ptext10 0634                     __ptext11 0535  
                   __ptext20 05F1                     __ptext12 05B7                     __ptext21 0586  
                   __ptext13 055F                     __ptext22 056A                     __ptext14 06BF  
                   __ptext23 0667                     __ptext15 0595                     __ptext24 064D  
                   __ptext16 0531                     __ptext25 061B                     __ptext17 0606  
                   __ptext18 05DD                     __ptext19 0547                   ?_write_bit 0070  
            _nrf24_getStatus 054F             _nrf24_tx_address 0595                     _init_Cpu 05B7  
                   _read_bit 05A5              _nrf24_isSending 053A              nrf24_send@value 0077  
        nrf24_tx_address@adr 0077                     _ow_reset 061B                     _spi_init 055F  
          ??_readTemp_Single 0078                  ??_init_uart 0070                  ??_read_byte 0071  
         readTemp_Single@buf 0076           readTemp_Single@tmp 0036              _nrf24_powerDown 0535  
            _nrf24_powerUpRx 05DD              _nrf24_powerUpTx 0578                    stringcode 000B  
           nrf24_write_buf@i 0076              _nrf24_write_buf 0606              _nrf24_write_reg 0547  
               ??_write_byte 0072        nrf24_write_buf@length 0074                  _temperature 0033  
    nrf24_getStatus@r_status 0072                     stringdir 000B                     stringtab 0001  
    __end_of_nrf24_getStatus 0557                  ??_write_bit 0070      __end_of_nrf24_isSending 0540  
         __end_of_write_byte 0683  
